

Microchip MPLAB XC8 Assembler V2.10 build 88905656 
                                                                                               Sat Oct 17 12:33:20 2020

Microchip MPLAB XC8 C Compiler v2.10 (Free license) build 20190730164152 Og1 
     1                           	processor	18F46K22
     2                           	fnconf	rparam,??,?,0
     3                           	opt	pw 120
     4                           	opt	flic
     5                           	psect	idataCOMRAM,global,class=CODE,delta=1,noexec
     6                           	psect	smallconst,global,reloc=2,class=SMALLCONST,delta=1,noexec
     7                           	psect	cinit,global,reloc=2,class=CODE,delta=1
     8                           	psect	bssCOMRAM,global,class=COMRAM,space=1,delta=1,noexec
     9                           	psect	dataCOMRAM,global,class=COMRAM,space=1,delta=1,noexec
    10                           	psect	bssBANK0,global,class=BANK0,space=1,delta=1,lowdata,noexec
    11                           	psect	cstackCOMRAM,global,class=COMRAM,space=1,delta=1,noexec
    12                           	psect	text0,global,reloc=2,class=CODE,delta=1
    13                           	psect	text1,global,reloc=2,class=CODE,delta=1
    14                           	psect	text2,global,reloc=2,class=CODE,delta=1
    15                           	psect	text3,global,reloc=2,class=CODE,delta=1
    16                           	psect	text4,global,reloc=2,class=CODE,delta=1
    17                           	psect	intcodelo,global,reloc=2,class=CODE,delta=1
    18                           	psect	text6,global,reloc=2,class=CODE,delta=1
    19                           	psect	text7,global,reloc=2,class=CODE,delta=1
    20                           	psect	intcode,global,reloc=2,class=CODE,delta=1
    21                           	psect	intcode_body,global,reloc=2,class=CODE,delta=1
    22                           	psect	intsave_regs,global,class=BIGRAM,space=1,delta=1,noexec
    23                           	psect	rparam,global,class=COMRAM,space=1,delta=1,noexec
    24                           	psect	temp,global,ovrld,common,class=COMRAM,space=1,delta=1
    25  0000                     
    26                           ; Version 2.10
    27                           ; Generated 31/07/2019 GMT
    28                           ; 
    29                           ; Copyright © 2019, Microchip Technology Inc. and its subsidiaries ("Microchip")
    30                           ; All rights reserved.
    31                           ; 
    32                           ; This software is developed by Microchip Technology Inc. and its subsidiaries ("Microch
      +                          ip").
    33                           ; 
    34                           ; Redistribution and use in source and binary forms, with or without modification, are
    35                           ; permitted provided that the following conditions are met:
    36                           ; 
    37                           ;     1. Redistributions of source code must retain the above copyright notice, this lis
      +                          t of
    38                           ;        conditions and the following disclaimer.
    39                           ; 
    40                           ;     2. Redistributions in binary form must reproduce the above copyright notice, this 
      +                          list
    41                           ;        of conditions and the following disclaimer in the documentation and/or other
    42                           ;        materials provided with the distribution.
    43                           ; 
    44                           ;     3. Microchip's name may not be used to endorse or promote products derived from th
      +                          is
    45                           ;        software without specific prior written permission.
    46                           ; 
    47                           ; THIS SOFTWARE IS PROVIDED BY MICROCHIP "AS IS" AND ANY EXPRESS OR IMPLIED WARRANTIES,
    48                           ; INCLUDING, BUT NOT LIMITED TO, THE IMPLIED WARRANTIES OF MERCHANTABILITY AND FITNESS F
      +                          OR
    49                           ; PURPOSE ARE DISCLAIMED.  IN NO EVENT SHALL MICROCHIP BE LIABLE FOR ANY DIRECT, INDIREC
      +                          T,
    50                           ; INCIDENTAL, SPECIAL, EXEMPLARY, OR CONSEQUENTIAL DAMAGES (INCLUDING BUT NOT LIMITED TO
    51                           ; PROCUREMENT OF SUBSTITUTE GOODS OR SERVICES; LOSS OF USE, DATA OR PROFITS; OR BUSINESS
    52                           ; INTERRUPTION) HOWSOEVER CAUSED AND ON ANY THEORY OF LIABILITY, WHETHER IN CONTRACT, ST
      +                          RICT
    53                           ; LIABILITY, OR TORT (INCLUDING NEGLIGENCE OR OTHERWISE) ARISING IN ANY WAY OUT OF THE U
      +                          SE OF
    54                           ; THIS SOFTWARE, EVEN IF ADVISED OF THE POSSIBILITY OF SUCH DAMAGE.
    55                           ; 
    56                           ; 
    57                           ; Code-generator required, PIC18F46K22 Definitions
    58                           ; 
    59                           ; SFR Addresses
    60  0000                     
    61                           	psect	idataCOMRAM
    62  001A94                     __pidataCOMRAM:
    63                           	opt callstack 0
    64                           
    65                           ;initializer for _contBitEL
    66  001A94  01                 	db	1
    67                           
    68                           ;initializer for _flancoEL
    69  001A95  01                 	db	1
    70                           
    71                           	psect	smallconst
    72  001000                     __psmallconst:
    73                           	opt callstack 0
    74  001000  00                 	db	0
    75  001001                     _preambulo:
    76                           	opt callstack 0
    77  001001  7F                 	db	127
    78  001002                     __end_of_preambulo:
    79                           	opt callstack 0
    80  0000                     _TMR4	set	3923
    81  0000                     _CCPR5H	set	3926
    82  0000                     _CCPR5L	set	3925
    83  0000                     _TMR5H	set	3920
    84  0000                     _TMR5L	set	3919
    85  0000                     _CCPR3H	set	3935
    86  0000                     _CCPR3L	set	3934
    87  0000                     _T5CONbits	set	3918
    88  0000                     _CCP3CONbits	set	3933
    89  0000                     _CCPTMRS0bits	set	3913
    90  0000                     _PR4	set	3922
    91  0000                     _T4CONbits	set	3921
    92  0000                     _ANSELD	set	3899
    93  0000                     _ANSELC	set	3898
    94  0000                     _ANSELB	set	3897
    95  0000                     _ANSELA	set	3896
    96  0000                     _SSP1BUF	set	4041
    97  0000                     _PORTBbits	set	3969
    98  0000                     _PIR4bits	set	3963
    99  0000                     _TMR3H	set	4019
   100  0000                     _TMR3L	set	4018
   101  0000                     _PIR2bits	set	4001
   102  0000                     _CCPR1H	set	4031
   103  0000                     _CCPR1L	set	4030
   104  0000                     _TMR1H	set	4047
   105  0000                     _TMR1L	set	4046
   106  0000                     _PIR1bits	set	3998
   107  0000                     _PIR5bits	set	3966
   108  0000                     _RCONbits	set	4048
   109  0000                     _PIE3bits	set	4003
   110  0000                     _IPR3bits	set	4005
   111  0000                     _PIR3bits	set	4004
   112  0000                     _RCSTA2bits	set	3953
   113  0000                     _SPBRGH2	set	3958
   114  0000                     _SPBRG2	set	3957
   115  0000                     _TXSTA2bits	set	3954
   116  0000                     _BAUDCON2bits	set	3952
   117  0000                     _SSP1CON1bits	set	4038
   118  0000                     _SSP1STATbits	set	4039
   119  0000                     _PIE4bits	set	3962
   120  0000                     _IPR4bits	set	3964
   121  0000                     _TRISEbits	set	3990
   122  0000                     _PIE2bits	set	4000
   123  0000                     _IPR2bits	set	4002
   124  0000                     _T3CONbits	set	4017
   125  0000                     _CCP2CONbits	set	3942
   126  0000                     _PIE1bits	set	3997
   127  0000                     _IPR1bits	set	3999
   128  0000                     _T1CONbits	set	4045
   129  0000                     _CCP1CONbits	set	4029
   130  0000                     _PIE5bits	set	3965
   131  0000                     _IPR5bits	set	3967
   132  0000                     _INTCON2bits	set	4081
   133  0000                     _TMR0L	set	4054
   134  0000                     _TMR0H	set	4055
   135  0000                     _T0CONbits	set	4053
   136  0000                     _INTCON3bits	set	4080
   137  0000                     _INTCONbits	set	4082
   138  0000                     _TRISE	set	3990
   139  0000                     _TRISD	set	3989
   140  0000                     _TRISCbits	set	3988
   141  0000                     _WPUB	set	3937
   142  0000                     _TRISB	set	3987
   143  0000                     _LATB	set	3978
   144  0000                     _LATA	set	3977
   145  0000                     _TRISA	set	3986
   146  0000                     _TXREG2	set	3955
   147  0000                     _LA3	set	31819
   148  0000                     _LA2	set	31818
   149                           
   150                           ; #config settings
   151  001002  00                 	db	0	; dummy byte at the end
   152  0000                     
   153                           	psect	cinit
   154  0019E2                     __pcinit:
   155                           	opt callstack 0
   156  0019E2                     start_initialization:
   157                           	opt callstack 0
   158  0019E2                     __initialization:
   159                           	opt callstack 0
   160                           
   161                           ; Initialize objects allocated to COMRAM (2 bytes)
   162                           ; load TBLPTR registers with __pidataCOMRAM
   163  0019E2  0E94               	movlw	low __pidataCOMRAM
   164  0019E4  6EF6               	movwf	tblptrl,c
   165  0019E6  0E1A               	movlw	high __pidataCOMRAM
   166  0019E8  6EF7               	movwf	tblptrh,c
   167  0019EA  0E00               	movlw	low (__pidataCOMRAM shr (0+16))
   168  0019EC  6EF8               	movwf	tblptru,c
   169  0019EE  0009               	tblrd		*+	;fetch initializer
   170  0019F0  CFF5 F04A          	movff	tablat,__pdataCOMRAM
   171  0019F4  0009               	tblrd		*+	;fetch initializer
   172  0019F6  CFF5 F04B          	movff	tablat,__pdataCOMRAM+1
   173                           
   174                           ; Clear objects allocated to BANK0 (122 bytes)
   175  0019FA  EE00  F060         	lfsr	0,__pbssBANK0
   176  0019FE  0E7A               	movlw	122
   177  001A00                     clear_0:
   178  001A00  6AEE               	clrf	postinc0,c
   179  001A02  06E8               	decf	wreg,f,c
   180  001A04  E1FD               	bnz	clear_0
   181                           
   182                           ; Clear objects allocated to COMRAM (47 bytes)
   183  001A06  EE00  F001         	lfsr	0,__pbssCOMRAM
   184  001A0A  0E2F               	movlw	47
   185  001A0C                     clear_1:
   186  001A0C  6AEE               	clrf	postinc0,c
   187  001A0E  06E8               	decf	wreg,f,c
   188  001A10  E1FD               	bnz	clear_1
   189  001A12                     end_of_initialization:
   190                           	opt callstack 0
   191  001A12                     __end_of__initialization:
   192                           	opt callstack 0
   193  001A12  904C               	bcf	int$flags,0,c	;clear compiler interrupt flag (level 1)
   194  001A14  924C               	bcf	int$flags,1,c	;clear compiler interrupt flag (level 2)
   195  001A16  0E00               	movlw	low (__Lsmallconst shr (0+16))
   196  001A18  6EF8               	movwf	tblptru,c
   197  001A1A  0E10               	movlw	high __Lsmallconst
   198  001A1C  6EF7               	movwf	tblptrh,c
   199  001A1E  0100               	movlb	0
   200  001A20  EF65  F009         	goto	_main	;jump to C main() function
   201                           
   202                           	psect	bssCOMRAM
   203  000001                     __pbssCOMRAM:
   204                           	opt callstack 0
   205  000001                     _DatosEL:
   206                           	opt callstack 0
   207  000001                     	ds	6
   208  000007                     _cantBytesEL:
   209                           	opt callstack 0
   210  000007                     	ds	1
   211  000008                     _contByteEL:
   212                           	opt callstack 0
   213  000008                     	ds	1
   214  000009                     _primerosBitsEL:
   215                           	opt callstack 0
   216  000009                     	ds	1
   217  00000A                     _debugCont:
   218                           	opt callstack 0
   219  00000A                     	ds	1
   220  00000B                     _jugador:
   221                           	opt callstack 0
   222  00000B                     	ds	31
   223  00002A                     _configJuego:
   224                           	opt callstack 0
   225  00002A                     	ds	6
   226                           
   227                           	psect	dataCOMRAM
   228  00004A                     __pdataCOMRAM:
   229                           	opt callstack 0
   230  00004A                     _contBitEL:
   231                           	opt callstack 0
   232  00004A                     	ds	1
   233  00004B                     _flancoEL:
   234                           	opt callstack 0
   235  00004B                     	ds	1
   236                           
   237                           	psect	bssBANK0
   238  000060                     __pbssBANK0:
   239                           	opt callstack 0
   240  000060                     _receptores:
   241                           	opt callstack 0
   242  000060                     	ds	69
   243  0000A5                     _debug:
   244                           	opt callstack 0
   245  0000A5                     	ds	53
   246                           
   247                           	psect	cstackCOMRAM
   248  000030                     __pcstackCOMRAM:
   249                           	opt callstack 0
   250  000030                     ??_IRS_High:
   251  000030                     
   252                           ; 1 bytes @ 0x0
   253  000030                     	ds	2
   254  000032                     Capture@reception:
   255                           	opt callstack 0
   256  000032                     i1EUSARTEnviar2@reg:
   257                           	opt callstack 0
   258                           
   259                           ; 2 bytes @ 0x2
   260  000032                     	ds	2
   261  000034                     ??_Capture:
   262  000034                     i1EUSARTEnviar2@e:
   263                           	opt callstack 0
   264                           
   265                           ; 2 bytes @ 0x4
   266  000034                     	ds	2
   267  000036                     
   268                           ; 1 bytes @ 0x6
   269  000036                     	ds	2
   270  000038                     ??_IRS_Low:
   271                           
   272                           ; 1 bytes @ 0x8
   273  000038                     	ds	7
   274  00003F                     InitDebug@i:
   275                           	opt callstack 0
   276  00003F                     ReadShot@gameConfig:
   277                           	opt callstack 0
   278  00003F                     EUSARTEnviar2@reg:
   279                           	opt callstack 0
   280                           
   281                           ; 2 bytes @ 0xF
   282  00003F                     	ds	1
   283  000040                     InitDebug@i_2138:
   284                           	opt callstack 0
   285                           
   286                           ; 1 bytes @ 0x10
   287  000040                     	ds	1
   288  000041                     ReadShot@player:
   289                           	opt callstack 0
   290  000041                     EUSARTEnviar2@e:
   291                           	opt callstack 0
   292                           
   293                           ; 2 bytes @ 0x11
   294  000041                     	ds	2
   295  000043                     ReadShot@reception:
   296                           	opt callstack 0
   297                           
   298                           ; 2 bytes @ 0x13
   299  000043                     	ds	2
   300  000045                     ??_ReadShot:
   301                           
   302                           ; 1 bytes @ 0x15
   303  000045                     	ds	5
   304  00004A                     
   305                           ; 1 bytes @ 0x1A
   306 ;;
   307 ;;Main: autosize = 0, tempsize = 0, incstack = 0, save=0
   308 ;;
   309 ;; *************** function _main *****************
   310 ;; Defined at:
   311 ;;		line 372 in file "pechera.c"
   312 ;; Parameters:    Size  Location     Type
   313 ;;		None
   314 ;; Auto vars:     Size  Location     Type
   315 ;;		None
   316 ;; Return value:  Size  Location     Type
   317 ;;                  1    wreg      void 
   318 ;; Registers used:
   319 ;;		wreg, fsr1l, fsr1h, fsr2l, fsr2h, status,2, status,0, prodl, prodh, cstack
   320 ;; Tracked objects:
   321 ;;		On entry : 0/0
   322 ;;		On exit  : 0/0
   323 ;;		Unchanged: 0/0
   324 ;; Data sizes:     COMRAM   BANK0   BANK1   BANK2   BANK3   BANK4   BANK5   BANK6   BANK7   BANK8   BANK9  BANK10  BANK1
      +1  BANK12  BANK13  BANK14  BANK15
   325 ;;      Params:         0       0       0       0       0       0       0       0       0       0       0       0       
      +0       0       0       0       0
   326 ;;      Locals:         0       0       0       0       0       0       0       0       0       0       0       0       
      +0       0       0       0       0
   327 ;;      Temps:          0       0       0       0       0       0       0       0       0       0       0       0       
      +0       0       0       0       0
   328 ;;      Totals:         0       0       0       0       0       0       0       0       0       0       0       0       
      +0       0       0       0       0
   329 ;;Total ram usage:        0 bytes
   330 ;; Hardware stack levels required when called:    4
   331 ;; This function calls:
   332 ;;		_Config
   333 ;;		_EUSARTEnviar2
   334 ;;		_InitDebug
   335 ;;		_ReadShot
   336 ;; This function is called by:
   337 ;;		Startup code after reset
   338 ;; This function uses a non-reentrant model
   339 ;;
   340                           
   341                           	psect	text0
   342  0012CA                     __ptext0:
   343                           	opt callstack 0
   344  0012CA                     _main:
   345                           	opt callstack 27
   346  0012CA                     
   347                           ;pechera.c: 374: Config();
   348  0012CA  EC7F  F00C         	call	_Config	;wreg free
   349  0012CE                     
   350                           ;pechera.c: 375: InitDebug();
   351  0012CE  ECE5  F00B         	call	_InitDebug	;wreg free
   352  0012D2                     
   353                           ;pechera.c: 377: configJuego.Estado = EnJuego;
   354  0012D2  0E06               	movlw	6
   355  0012D4  6E2F               	movwf	(_configJuego+5)^0,c
   356  0012D6                     l1885:
   357                           
   358                           ;pechera.c: 381: {;pechera.c: 382: if(configJuego.Estado == EnJuego)
   359  0012D6  0E06               	movlw	6
   360  0012D8  182F               	xorwf	(_configJuego+5)^0,w,c
   361  0012DA  A4D8               	btfss	status,2,c
   362  0012DC  EF72  F009         	goto	u1111
   363  0012E0  EF74  F009         	goto	u1110
   364  0012E4                     u1111:
   365  0012E4  EF6B  F009         	goto	l1885
   366  0012E8                     u1110:
   367  0012E8                     
   368                           ;pechera.c: 383: {;pechera.c: 384: if(jugador.estado == Revivir)
   369  0012E8  0E02               	movlw	2
   370  0012EA  180B               	xorwf	_jugador^0,w,c
   371  0012EC  A4D8               	btfss	status,2,c
   372  0012EE  EF7B  F009         	goto	u1121
   373  0012F2  EF7D  F009         	goto	u1120
   374  0012F6                     u1121:
   375  0012F6  EF8B  F009         	goto	l1897
   376  0012FA                     u1120:
   377  0012FA                     
   378                           ;pechera.c: 385: {;pechera.c: 386: DatosEL[0] = 3;
   379  0012FA  0E03               	movlw	3
   380  0012FC  6E01               	movwf	_DatosEL^0,c
   381  0012FE                     
   382                           ;pechera.c: 387: DatosEL[1] = jugador.ID;
   383  0012FE  C00D  F002         	movff	_jugador+2,_DatosEL+1
   384  001302                     
   385                           ;pechera.c: 388: DatosEL[2] = jugador.equipo;
   386  001302  C00C  F003         	movff	_jugador+1,_DatosEL+2
   387  001306                     
   388                           ;pechera.c: 389: DatosEL[3] = jugador.Arma.damage;
   389  001306  C01F  F004         	movff	_jugador+20,_DatosEL+3
   390                           
   391                           ;pechera.c: 391: cantBytesEL = 4;
   392  00130A  0E04               	movlw	4
   393  00130C  6E07               	movwf	_cantBytesEL^0,c
   394                           
   395                           ;pechera.c: 392: jugador.estado = Vivo;
   396  00130E  0E00               	movlw	0
   397  001310  6E0B               	movwf	_jugador^0,c
   398                           
   399                           ;pechera.c: 393: }
   400  001312  EF6B  F009         	goto	l1885
   401  001316                     l1897:
   402                           
   403                           ;pechera.c: 394: else if(jugador.estado == Vivo)
   404  001316  500B               	movf	_jugador^0,w,c
   405  001318  A4D8               	btfss	status,2,c
   406  00131A  EF91  F009         	goto	u1131
   407  00131E  EF93  F009         	goto	u1130
   408  001322                     u1131:
   409  001322  EF6B  F009         	goto	l1885
   410  001326                     u1130:
   411  001326                     
   412                           ;pechera.c: 395: {;pechera.c: 397: if(PORTBbits.RB0 && !jugador.Arma.disparando)
   413  001326  A081               	btfss	129,0,c	;volatile
   414  001328  EF98  F009         	goto	u1141
   415  00132C  EF9A  F009         	goto	u1140
   416  001330                     u1141:
   417  001330  EFB3  F009         	goto	l254
   418  001334                     u1140:
   419  001334  5022               	movf	(_jugador+23)^0,w,c
   420  001336  A4D8               	btfss	status,2,c
   421  001338  EFA0  F009         	goto	u1151
   422  00133C  EFA2  F009         	goto	u1150
   423  001340                     u1151:
   424  001340  EFB3  F009         	goto	l254
   425  001344                     u1150:
   426  001344                     
   427                           ;pechera.c: 398: {;pechera.c: 399: TMR4 = 0;
   428  001344  0E00               	movlw	0
   429  001346  010F               	movlb	15	; () banked
   430  001348  6F53               	movwf	83,b	;volatile
   431                           
   432                           ;pechera.c: 400: PR4 = 20;
   433  00134A  0E14               	movlw	20
   434  00134C  6F52               	movwf	82,b	;volatile
   435                           
   436                           ;pechera.c: 401: T4CONbits.T4OUTPS = 10;
   437  00134E  5151               	movf	81,w,b	;volatile
   438  001350  0B87               	andlw	-121
   439  001352  0950               	iorlw	80
   440  001354  6F51               	movwf	81,b	;volatile
   441                           
   442                           ;pechera.c: 402: T4CONbits.T4CKPS = 0;
   443  001356  0EFC               	movlw	-4
   444  001358  1751               	andwf	81,f,b	;volatile
   445  00135A                     
   446                           ; BSR set to: 15
   447                           ;pechera.c: 403: T4CONbits.TMR4ON = 1;
   448  00135A  8551               	bsf	81,2,b	;volatile
   449  00135C                     
   450                           ; BSR set to: 15
   451                           ;pechera.c: 404: PIE5bits.TMR4IE = 1;
   452  00135C  807D               	bsf	125,0,c	;volatile
   453                           
   454                           ;pechera.c: 406: jugador.Arma.disparando = 1;
   455  00135E  0E01               	movlw	1
   456  001360  6E22               	movwf	(_jugador+23)^0,c
   457                           
   458                           ;pechera.c: 415: }
   459  001362  EFC6  F009         	goto	l255
   460  001366                     l254:
   461                           
   462                           ;pechera.c: 416: else if(!PORTBbits.RB0 && jugador.Arma.habilDisparo)
   463  001366  B081               	btfsc	129,0,c	;volatile
   464  001368  EFB8  F009         	goto	u1161
   465  00136C  EFBA  F009         	goto	u1160
   466  001370                     u1161:
   467  001370  EFC6  F009         	goto	l255
   468  001374                     u1160:
   469  001374  5023               	movf	(_jugador+24)^0,w,c
   470  001376  B4D8               	btfsc	status,2,c
   471  001378  EFC0  F009         	goto	u1171
   472  00137C  EFC2  F009         	goto	u1170
   473  001380                     u1171:
   474  001380  EFC6  F009         	goto	l255
   475  001384                     u1170:
   476  001384                     
   477                           ;pechera.c: 417: {;pechera.c: 418: jugador.Arma.habilDisparo = 0;
   478  001384  0E00               	movlw	0
   479  001386  6E23               	movwf	(_jugador+24)^0,c
   480                           
   481                           ;pechera.c: 419: jugador.Arma.disparando = 0;
   482  001388  0E00               	movlw	0
   483  00138A  6E22               	movwf	(_jugador+23)^0,c
   484  00138C                     l255:
   485                           
   486                           ;pechera.c: 420: };pechera.c: 422: if(receptores[0].DatosLRecibidoFlag)
   487  00138C  0100               	movlb	0	; () banked
   488  00138E  5176               	movf	(_receptores+22)& (0+255),w,b
   489  001390  B4D8               	btfsc	status,2,c
   490  001392  EFCD  F009         	goto	u1181
   491  001396  EFCF  F009         	goto	u1180
   492  00139A                     u1181:
   493  00139A  EFF4  F009         	goto	l1927
   494  00139E                     u1180:
   495  00139E                     
   496                           ; BSR set to: 0
   497                           ;pechera.c: 423: {;pechera.c: 424: ReadShot(&configJuego, &jugador, &receptores[0]);
   498  00139E  0E2A               	movlw	low _configJuego
   499  0013A0  6E3F               	movwf	ReadShot@gameConfig^0,c
   500  0013A2  0E00               	movlw	high _configJuego
   501  0013A4  6E40               	movwf	(ReadShot@gameConfig+1)^0,c
   502  0013A6  0E0B               	movlw	low _jugador
   503  0013A8  6E41               	movwf	ReadShot@player^0,c
   504  0013AA  0E00               	movlw	high _jugador
   505  0013AC  6E42               	movwf	(ReadShot@player+1)^0,c
   506  0013AE  0E60               	movlw	low _receptores
   507  0013B0  6E43               	movwf	ReadShot@reception^0,c
   508  0013B2  0E00               	movlw	high _receptores
   509  0013B4  6E44               	movwf	(ReadShot@reception+1)^0,c
   510  0013B6  EC35  F00B         	call	_ReadShot	;wreg free
   511  0013BA                     
   512                           ;pechera.c: 426: receptores[0].DatosLRecibidoFlag = 0;
   513  0013BA  0E00               	movlw	0
   514  0013BC  0100               	movlb	0	; () banked
   515  0013BE  6F76               	movwf	(_receptores+22)& (0+255),b
   516  0013C0                     
   517                           ; BSR set to: 0
   518                           ;pechera.c: 429: debug.Datos[0] = 'R';
   519  0013C0  0E52               	movlw	82
   520  0013C2  6FA5               	movwf	_debug& (0+255),b
   521  0013C4                     
   522                           ; BSR set to: 0
   523                           ;pechera.c: 430: debug.Datos[1] = 'e';
   524  0013C4  0E65               	movlw	101
   525  0013C6  6FA6               	movwf	(_debug+1)& (0+255),b
   526  0013C8                     
   527                           ; BSR set to: 0
   528                           ;pechera.c: 431: debug.Datos[2] = 'c';
   529  0013C8  0E63               	movlw	99
   530  0013CA  6FA7               	movwf	(_debug+2)& (0+255),b
   531  0013CC                     
   532                           ; BSR set to: 0
   533                           ;pechera.c: 432: debug.Datos[3] = '1';
   534  0013CC  0E31               	movlw	49
   535  0013CE  6FA8               	movwf	(_debug+3)& (0+255),b
   536  0013D0                     
   537                           ; BSR set to: 0
   538                           ;pechera.c: 433: debug.CantDatos = 4;
   539  0013D0  0E04               	movlw	4
   540  0013D2  6FD8               	movwf	(_debug+51)& (0+255),b
   541                           
   542                           ;pechera.c: 434: EUSARTEnviar2(&TXREG2, &debug);
   543  0013D4  0E73               	movlw	115
   544  0013D6  6E3F               	movwf	EUSARTEnviar2@reg^0,c
   545  0013D8  0E0F               	movlw	15
   546  0013DA  6E40               	movwf	(EUSARTEnviar2@reg+1)^0,c
   547  0013DC  0EA5               	movlw	low _debug
   548  0013DE  6E41               	movwf	EUSARTEnviar2@e^0,c
   549  0013E0  0E00               	movlw	high _debug
   550  0013E2  6E42               	movwf	(EUSARTEnviar2@e+1)^0,c
   551  0013E4  EC12  F00D         	call	_EUSARTEnviar2	;wreg free
   552  0013E8                     l1927:
   553                           
   554                           ;pechera.c: 435: };pechera.c: 437: if(receptores[1].DatosLRecibidoFlag)
   555  0013E8  0100               	movlb	0	; () banked
   556  0013EA  518D               	movf	(_receptores+45)& (0+255),w,b
   557  0013EC  B4D8               	btfsc	status,2,c
   558  0013EE  EFFB  F009         	goto	u1191
   559  0013F2  EFFD  F009         	goto	u1190
   560  0013F6                     u1191:
   561  0013F6  EF22  F00A         	goto	l1943
   562  0013FA                     u1190:
   563  0013FA                     
   564                           ; BSR set to: 0
   565                           ;pechera.c: 438: {;pechera.c: 439: ReadShot(&configJuego, &jugador, &receptores[1]);
   566  0013FA  0E2A               	movlw	low _configJuego
   567  0013FC  6E3F               	movwf	ReadShot@gameConfig^0,c
   568  0013FE  0E00               	movlw	high _configJuego
   569  001400  6E40               	movwf	(ReadShot@gameConfig+1)^0,c
   570  001402  0E0B               	movlw	low _jugador
   571  001404  6E41               	movwf	ReadShot@player^0,c
   572  001406  0E00               	movlw	high _jugador
   573  001408  6E42               	movwf	(ReadShot@player+1)^0,c
   574  00140A  0E77               	movlw	low (_receptores+23)
   575  00140C  6E43               	movwf	ReadShot@reception^0,c
   576  00140E  0E00               	movlw	high (_receptores+23)
   577  001410  6E44               	movwf	(ReadShot@reception+1)^0,c
   578  001412  EC35  F00B         	call	_ReadShot	;wreg free
   579  001416                     
   580                           ;pechera.c: 441: receptores[1].DatosLRecibidoFlag = 0;
   581  001416  0E00               	movlw	0
   582  001418  0100               	movlb	0	; () banked
   583  00141A  6F8D               	movwf	(_receptores+45)& (0+255),b
   584  00141C                     
   585                           ; BSR set to: 0
   586                           ;pechera.c: 444: debug.Datos[0] = 'R';
   587  00141C  0E52               	movlw	82
   588  00141E  6FA5               	movwf	_debug& (0+255),b
   589  001420                     
   590                           ; BSR set to: 0
   591                           ;pechera.c: 445: debug.Datos[1] = 'e';
   592  001420  0E65               	movlw	101
   593  001422  6FA6               	movwf	(_debug+1)& (0+255),b
   594  001424                     
   595                           ; BSR set to: 0
   596                           ;pechera.c: 446: debug.Datos[2] = 'c';
   597  001424  0E63               	movlw	99
   598  001426  6FA7               	movwf	(_debug+2)& (0+255),b
   599  001428                     
   600                           ; BSR set to: 0
   601                           ;pechera.c: 447: debug.Datos[3] = '2';
   602  001428  0E32               	movlw	50
   603  00142A  6FA8               	movwf	(_debug+3)& (0+255),b
   604  00142C                     
   605                           ; BSR set to: 0
   606                           ;pechera.c: 448: debug.CantDatos = 4;
   607  00142C  0E04               	movlw	4
   608  00142E  6FD8               	movwf	(_debug+51)& (0+255),b
   609                           
   610                           ;pechera.c: 449: EUSARTEnviar2(&TXREG2, &debug);
   611  001430  0E73               	movlw	115
   612  001432  6E3F               	movwf	EUSARTEnviar2@reg^0,c
   613  001434  0E0F               	movlw	15
   614  001436  6E40               	movwf	(EUSARTEnviar2@reg+1)^0,c
   615  001438  0EA5               	movlw	low _debug
   616  00143A  6E41               	movwf	EUSARTEnviar2@e^0,c
   617  00143C  0E00               	movlw	high _debug
   618  00143E  6E42               	movwf	(EUSARTEnviar2@e+1)^0,c
   619  001440  EC12  F00D         	call	_EUSARTEnviar2	;wreg free
   620  001444                     l1943:
   621                           
   622                           ;pechera.c: 450: };pechera.c: 452: if(receptores[2].DatosLRecibidoFlag)
   623  001444  0100               	movlb	0	; () banked
   624  001446  51A4               	movf	(_receptores+68)& (0+255),w,b
   625  001448  B4D8               	btfsc	status,2,c
   626  00144A  EF29  F00A         	goto	u1201
   627  00144E  EF2B  F00A         	goto	u1200
   628  001452                     u1201:
   629  001452  EF52  F00A         	goto	l250
   630  001456                     u1200:
   631  001456                     
   632                           ; BSR set to: 0
   633                           ;pechera.c: 453: {;pechera.c: 454: ReadShot(&configJuego, &jugador, &receptores[2]);
   634  001456  0E2A               	movlw	low _configJuego
   635  001458  6E3F               	movwf	ReadShot@gameConfig^0,c
   636  00145A  0E00               	movlw	high _configJuego
   637  00145C  6E40               	movwf	(ReadShot@gameConfig+1)^0,c
   638  00145E  0E0B               	movlw	low _jugador
   639  001460  6E41               	movwf	ReadShot@player^0,c
   640  001462  0E00               	movlw	high _jugador
   641  001464  6E42               	movwf	(ReadShot@player+1)^0,c
   642  001466  0E8E               	movlw	low (_receptores+46)
   643  001468  6E43               	movwf	ReadShot@reception^0,c
   644  00146A  0E00               	movlw	high (_receptores+46)
   645  00146C  6E44               	movwf	(ReadShot@reception+1)^0,c
   646  00146E  EC35  F00B         	call	_ReadShot	;wreg free
   647  001472                     
   648                           ;pechera.c: 456: receptores[2].DatosLRecibidoFlag = 0;
   649  001472  0E00               	movlw	0
   650  001474  0100               	movlb	0	; () banked
   651  001476  6FA4               	movwf	(_receptores+68)& (0+255),b
   652  001478                     
   653                           ; BSR set to: 0
   654                           ;pechera.c: 459: debug.Datos[0] = 'R';
   655  001478  0E52               	movlw	82
   656  00147A  6FA5               	movwf	_debug& (0+255),b
   657  00147C                     
   658                           ; BSR set to: 0
   659                           ;pechera.c: 460: debug.Datos[1] = 'e';
   660  00147C  0E65               	movlw	101
   661  00147E  6FA6               	movwf	(_debug+1)& (0+255),b
   662  001480                     
   663                           ; BSR set to: 0
   664                           ;pechera.c: 461: debug.Datos[2] = 'c';
   665  001480  0E63               	movlw	99
   666  001482  6FA7               	movwf	(_debug+2)& (0+255),b
   667  001484                     
   668                           ; BSR set to: 0
   669                           ;pechera.c: 462: debug.Datos[3] = '3';
   670  001484  0E33               	movlw	51
   671  001486  6FA8               	movwf	(_debug+3)& (0+255),b
   672  001488                     
   673                           ; BSR set to: 0
   674                           ;pechera.c: 463: debug.CantDatos = 4;
   675  001488  0E04               	movlw	4
   676  00148A  6FD8               	movwf	(_debug+51)& (0+255),b
   677                           
   678                           ;pechera.c: 464: EUSARTEnviar2(&TXREG2, &debug);
   679  00148C  0E73               	movlw	115
   680  00148E  6E3F               	movwf	EUSARTEnviar2@reg^0,c
   681  001490  0E0F               	movlw	15
   682  001492  6E40               	movwf	(EUSARTEnviar2@reg+1)^0,c
   683  001494  0EA5               	movlw	low _debug
   684  001496  6E41               	movwf	EUSARTEnviar2@e^0,c
   685  001498  0E00               	movlw	high _debug
   686  00149A  6E42               	movwf	(EUSARTEnviar2@e+1)^0,c
   687  00149C  EC12  F00D         	call	_EUSARTEnviar2	;wreg free
   688  0014A0  EF6B  F009         	goto	l1885
   689  0014A4                     l250:
   690                           
   691                           ; BSR set to: 0
   692  0014A4  EF6B  F009         	goto	l1885
   693  0014A8  EFF6  F000         	goto	start
   694  0014AC                     __end_of_main:
   695                           	opt callstack 0
   696                           
   697 ;; *************** function _ReadShot *****************
   698 ;; Defined at:
   699 ;;		line 62 in file "LReception.c"
   700 ;; Parameters:    Size  Location     Type
   701 ;;  gameConfig      2   15[COMRAM] PTR struct gameConfig
   702 ;;		 -> configJuego(6), 
   703 ;;  player          2   17[COMRAM] PTR struct player
   704 ;;		 -> jugador(31), 
   705 ;;  reception       2   19[COMRAM] PTR struct reception
   706 ;;		 -> receptores(69), 
   707 ;; Auto vars:     Size  Location     Type
   708 ;;		None
   709 ;; Return value:  Size  Location     Type
   710 ;;                  1    wreg      void 
   711 ;; Registers used:
   712 ;;		wreg, fsr1l, fsr1h, fsr2l, fsr2h, status,2, status,0
   713 ;; Tracked objects:
   714 ;;		On entry : 0/0
   715 ;;		On exit  : 0/0
   716 ;;		Unchanged: 0/0
   717 ;; Data sizes:     COMRAM   BANK0   BANK1   BANK2   BANK3   BANK4   BANK5   BANK6   BANK7   BANK8   BANK9  BANK10  BANK1
      +1  BANK12  BANK13  BANK14  BANK15
   718 ;;      Params:         6       0       0       0       0       0       0       0       0       0       0       0       
      +0       0       0       0       0
   719 ;;      Locals:         0       0       0       0       0       0       0       0       0       0       0       0       
      +0       0       0       0       0
   720 ;;      Temps:          5       0       0       0       0       0       0       0       0       0       0       0       
      +0       0       0       0       0
   721 ;;      Totals:        11       0       0       0       0       0       0       0       0       0       0       0       
      +0       0       0       0       0
   722 ;;Total ram usage:       11 bytes
   723 ;; Hardware stack levels used:    1
   724 ;; Hardware stack levels required when called:    3
   725 ;; This function calls:
   726 ;;		Nothing
   727 ;; This function is called by:
   728 ;;		_main
   729 ;; This function uses a non-reentrant model
   730 ;;
   731                           
   732                           	psect	text1
   733  00166A                     __ptext1:
   734                           	opt callstack 0
   735  00166A                     _ReadShot:
   736                           	opt callstack 27
   737  00166A                     
   738                           ;LReception.c: 64: if(player->estado == Vivo)
   739  00166A  C041  FFD9         	movff	ReadShot@player,fsr2l
   740  00166E  C042  FFDA         	movff	ReadShot@player+1,fsr2h
   741  001672  50DF               	movf	indf2,w,c
   742  001674  A4D8               	btfss	status,2,c
   743  001676  EF3F  F00B         	goto	u741
   744  00167A  EF41  F00B         	goto	u740
   745  00167E                     u741:
   746  00167E  EFE4  F00B         	goto	l288
   747  001682                     u740:
   748  001682                     
   749                           ;LReception.c: 65: {;LReception.c: 66: if(reception->DatosRecibidosL[1] != player->ID)
   750  001682  EE20 F005          	lfsr	2,5
   751  001686  5043               	movf	ReadShot@reception^0,w,c
   752  001688  26D9               	addwf	fsr2l,f,c
   753  00168A  5044               	movf	(ReadShot@reception+1)^0,w,c
   754  00168C  22DA               	addwfc	fsr2h,f,c
   755  00168E  EE10 F002          	lfsr	1,2
   756  001692  5041               	movf	ReadShot@player^0,w,c
   757  001694  26E1               	addwf	fsr1l,f,c
   758  001696  5042               	movf	(ReadShot@player+1)^0,w,c
   759  001698  22E2               	addwfc	fsr1h,f,c
   760  00169A  50DE               	movf	postinc2,w,c
   761  00169C  18E6               	xorwf	postinc1,w,c
   762  00169E  B4D8               	btfsc	status,2,c
   763  0016A0  EF54  F00B         	goto	u751
   764  0016A4  EF56  F00B         	goto	u750
   765  0016A8                     u751:
   766  0016A8  EFE4  F00B         	goto	l288
   767  0016AC                     u750:
   768  0016AC                     
   769                           ;LReception.c: 67: {;LReception.c: 68: if(gameConfig->FriendlyFire || reception->DatosRe
      +                          cibidosL[2] != player->equipo)
   770  0016AC  EE20 F004          	lfsr	2,4
   771  0016B0  503F               	movf	ReadShot@gameConfig^0,w,c
   772  0016B2  26D9               	addwf	fsr2l,f,c
   773  0016B4  5040               	movf	(ReadShot@gameConfig+1)^0,w,c
   774  0016B6  22DA               	addwfc	fsr2h,f,c
   775  0016B8  50DF               	movf	indf2,w,c
   776  0016BA  A4D8               	btfss	status,2,c
   777  0016BC  EF62  F00B         	goto	u761
   778  0016C0  EF64  F00B         	goto	u760
   779  0016C4                     u761:
   780  0016C4  EF79  F00B         	goto	l1699
   781  0016C8                     u760:
   782  0016C8  EE20 F006          	lfsr	2,6
   783  0016CC  5043               	movf	ReadShot@reception^0,w,c
   784  0016CE  26D9               	addwf	fsr2l,f,c
   785  0016D0  5044               	movf	(ReadShot@reception+1)^0,w,c
   786  0016D2  22DA               	addwfc	fsr2h,f,c
   787  0016D4  EE10 F001          	lfsr	1,1
   788  0016D8  5041               	movf	ReadShot@player^0,w,c
   789  0016DA  26E1               	addwf	fsr1l,f,c
   790  0016DC  5042               	movf	(ReadShot@player+1)^0,w,c
   791  0016DE  22E2               	addwfc	fsr1h,f,c
   792  0016E0  50DE               	movf	postinc2,w,c
   793  0016E2  18E6               	xorwf	postinc1,w,c
   794  0016E4  B4D8               	btfsc	status,2,c
   795  0016E6  EF77  F00B         	goto	u771
   796  0016EA  EF79  F00B         	goto	u770
   797  0016EE                     u771:
   798  0016EE  EFE4  F00B         	goto	l288
   799  0016F2                     u770:
   800  0016F2                     l1699:
   801                           
   802                           ;LReception.c: 69: {;LReception.c: 70: if(player->Vida < reception->DatosRecibidosL[3])
   803  0016F2  EE20 F007          	lfsr	2,7
   804  0016F6  5043               	movf	ReadShot@reception^0,w,c
   805  0016F8  26D9               	addwf	fsr2l,f,c
   806  0016FA  5044               	movf	(ReadShot@reception+1)^0,w,c
   807  0016FC  22DA               	addwfc	fsr2h,f,c
   808  0016FE  EE10 F003          	lfsr	1,3
   809  001702  5041               	movf	ReadShot@player^0,w,c
   810  001704  26E1               	addwf	fsr1l,f,c
   811  001706  5042               	movf	(ReadShot@player+1)^0,w,c
   812  001708  22E2               	addwfc	fsr1h,f,c
   813  00170A  50DE               	movf	postinc2,w,c
   814  00170C  5CE6               	subwf	postinc1,w,c
   815  00170E  B0D8               	btfsc	status,0,c
   816  001710  EF8C  F00B         	goto	u781
   817  001714  EF8E  F00B         	goto	u780
   818  001718                     u781:
   819  001718  EFD4  F00B         	goto	l1707
   820  00171C                     u780:
   821  00171C                     
   822                           ;LReception.c: 71: {;LReception.c: 72: player->Vida = 0;
   823  00171C  EE20 F003          	lfsr	2,3
   824  001720  5041               	movf	ReadShot@player^0,w,c
   825  001722  26D9               	addwf	fsr2l,f,c
   826  001724  5042               	movf	(ReadShot@player+1)^0,w,c
   827  001726  22DA               	addwfc	fsr2h,f,c
   828  001728  0E00               	movlw	0
   829  00172A  6EDF               	movwf	indf2,c
   830                           
   831                           ;LReception.c: 73: if(player->Estadisticas.puntos < gameConfig->RestaMuerte )
   832  00172C  EE20 F001          	lfsr	2,1
   833  001730  503F               	movf	ReadShot@gameConfig^0,w,c
   834  001732  26D9               	addwf	fsr2l,f,c
   835  001734  5040               	movf	(ReadShot@gameConfig+1)^0,w,c
   836  001736  22DA               	addwfc	fsr2h,f,c
   837  001738  50DF               	movf	indf2,w,c
   838  00173A  6E45               	movwf	??_ReadShot^0,c
   839  00173C  6A46               	clrf	(??_ReadShot+1)^0,c
   840  00173E  EE20 F01D          	lfsr	2,29
   841  001742  5041               	movf	ReadShot@player^0,w,c
   842  001744  26D9               	addwf	fsr2l,f,c
   843  001746  5042               	movf	(ReadShot@player+1)^0,w,c
   844  001748  22DA               	addwfc	fsr2h,f,c
   845  00174A  5045               	movf	??_ReadShot^0,w,c
   846  00174C  5CDE               	subwf	postinc2,w,c
   847  00174E  50DE               	movf	postinc2,w,c
   848  001750  0A80               	xorlw	128
   849  001752  6E49               	movwf	(??_ReadShot+4)^0,c
   850  001754  5046               	movf	(??_ReadShot+1)^0,w,c
   851  001756  0A80               	xorlw	128
   852  001758  5849               	subwfb	(??_ReadShot+4)^0,w,c
   853  00175A  B0D8               	btfsc	status,0,c
   854  00175C  EFB2  F00B         	goto	u791
   855  001760  EFB4  F00B         	goto	u790
   856  001764                     u791:
   857  001764  EFC0  F00B         	goto	l1705
   858  001768                     u790:
   859  001768                     
   860                           ;LReception.c: 74: {;LReception.c: 75: player->Estadisticas.puntos = 0;
   861  001768  EE20 F01D          	lfsr	2,29
   862  00176C  5041               	movf	ReadShot@player^0,w,c
   863  00176E  26D9               	addwf	fsr2l,f,c
   864  001770  5042               	movf	(ReadShot@player+1)^0,w,c
   865  001772  22DA               	addwfc	fsr2h,f,c
   866  001774  0E00               	movlw	0
   867  001776  6EDE               	movwf	postinc2,c
   868  001778  0E00               	movlw	0
   869  00177A  6EDD               	movwf	postdec2,c
   870                           
   871                           ;LReception.c: 76: }
   872  00177C  EFE4  F00B         	goto	l288
   873  001780                     l1705:
   874                           
   875                           ;LReception.c: 77: else;LReception.c: 78: {;LReception.c: 79: player->Estadisticas.punto
      +                          s -= gameConfig->RestaMuerte;
   876  001780  EE20 F01D          	lfsr	2,29
   877  001784  5041               	movf	ReadShot@player^0,w,c
   878  001786  26D9               	addwf	fsr2l,f,c
   879  001788  5042               	movf	(ReadShot@player+1)^0,w,c
   880  00178A  22DA               	addwfc	fsr2h,f,c
   881  00178C  EE10 F001          	lfsr	1,1
   882  001790  503F               	movf	ReadShot@gameConfig^0,w,c
   883  001792  26E1               	addwf	fsr1l,f,c
   884  001794  5040               	movf	(ReadShot@gameConfig+1)^0,w,c
   885  001796  22E2               	addwfc	fsr1h,f,c
   886  001798  50E7               	movf	indf1,w,c
   887  00179A  6E45               	movwf	??_ReadShot^0,c
   888  00179C  5045               	movf	??_ReadShot^0,w,c
   889  00179E  5EDE               	subwf	postinc2,f,c
   890  0017A0  0E00               	movlw	0
   891  0017A2  5ADD               	subwfb	postdec2,f,c
   892  0017A4  EFE4  F00B         	goto	l288
   893  0017A8                     l1707:
   894                           
   895                           ;LReception.c: 82: else;LReception.c: 83: player->Vida -= reception->DatosRecibidosL[3];
   896  0017A8  EE20 F007          	lfsr	2,7
   897  0017AC  5043               	movf	ReadShot@reception^0,w,c
   898  0017AE  26D9               	addwf	fsr2l,f,c
   899  0017B0  5044               	movf	(ReadShot@reception+1)^0,w,c
   900  0017B2  22DA               	addwfc	fsr2h,f,c
   901  0017B4  50DF               	movf	indf2,w,c
   902  0017B6  6E45               	movwf	??_ReadShot^0,c
   903  0017B8  EE20 F003          	lfsr	2,3
   904  0017BC  5041               	movf	ReadShot@player^0,w,c
   905  0017BE  26D9               	addwf	fsr2l,f,c
   906  0017C0  5042               	movf	(ReadShot@player+1)^0,w,c
   907  0017C2  22DA               	addwfc	fsr2h,f,c
   908  0017C4  5045               	movf	??_ReadShot^0,w,c
   909  0017C6  5EDF               	subwf	indf2,f,c
   910  0017C8                     l288:
   911  0017C8  0012               	return		;funcret
   912  0017CA                     __end_of_ReadShot:
   913                           	opt callstack 0
   914                           
   915 ;; *************** function _InitDebug *****************
   916 ;; Defined at:
   917 ;;		line 322 in file "pechera.c"
   918 ;; Parameters:    Size  Location     Type
   919 ;;		None
   920 ;; Auto vars:     Size  Location     Type
   921 ;;  i               1   16[COMRAM] unsigned char 
   922 ;;  i               1   15[COMRAM] unsigned char 
   923 ;; Return value:  Size  Location     Type
   924 ;;                  1    wreg      void 
   925 ;; Registers used:
   926 ;;		wreg, fsr2l, fsr2h, status,2, status,0, prodl, prodh
   927 ;; Tracked objects:
   928 ;;		On entry : 0/0
   929 ;;		On exit  : 0/0
   930 ;;		Unchanged: 0/0
   931 ;; Data sizes:     COMRAM   BANK0   BANK1   BANK2   BANK3   BANK4   BANK5   BANK6   BANK7   BANK8   BANK9  BANK10  BANK1
      +1  BANK12  BANK13  BANK14  BANK15
   932 ;;      Params:         0       0       0       0       0       0       0       0       0       0       0       0       
      +0       0       0       0       0
   933 ;;      Locals:         2       0       0       0       0       0       0       0       0       0       0       0       
      +0       0       0       0       0
   934 ;;      Temps:          0       0       0       0       0       0       0       0       0       0       0       0       
      +0       0       0       0       0
   935 ;;      Totals:         2       0       0       0       0       0       0       0       0       0       0       0       
      +0       0       0       0       0
   936 ;;Total ram usage:        2 bytes
   937 ;; Hardware stack levels used:    1
   938 ;; Hardware stack levels required when called:    3
   939 ;; This function calls:
   940 ;;		Nothing
   941 ;; This function is called by:
   942 ;;		_main
   943 ;; This function uses a non-reentrant model
   944 ;;
   945                           
   946                           	psect	text2
   947  0017CA                     __ptext2:
   948                           	opt callstack 0
   949  0017CA                     _InitDebug:
   950                           	opt callstack 27
   951  0017CA                     
   952                           ;pechera.c: 324: configJuego.Estado = Inicializacion;
   953  0017CA  0E00               	movlw	0
   954  0017CC  6E2F               	movwf	(_configJuego+5)^0,c
   955                           
   956                           ;pechera.c: 325: configJuego.FriendlyFire = 0;
   957  0017CE  0E00               	movlw	0
   958  0017D0  6E2E               	movwf	(_configJuego+4)^0,c
   959                           
   960                           ;pechera.c: 326: configJuego.RestaKillEquipo = 3;
   961  0017D2  0E03               	movlw	3
   962  0017D4  6E2D               	movwf	(_configJuego+3)^0,c
   963                           
   964                           ;pechera.c: 327: configJuego.RestaMuerte = 6;
   965  0017D6  0E06               	movlw	6
   966  0017D8  6E2B               	movwf	(_configJuego+1)^0,c
   967                           
   968                           ;pechera.c: 328: configJuego.SumaAsesinato = 5;
   969  0017DA  0E05               	movlw	5
   970  0017DC  6E2A               	movwf	_configJuego^0,c
   971                           
   972                           ;pechera.c: 329: configJuego.SumaAsistencia = 1;
   973  0017DE  0E01               	movlw	1
   974  0017E0  6E2C               	movwf	(_configJuego+2)^0,c
   975                           
   976                           ;pechera.c: 331: jugador.estado = Revivir;
   977  0017E2  0E02               	movlw	2
   978  0017E4  6E0B               	movwf	_jugador^0,c
   979                           
   980                           ;pechera.c: 332: jugador.equipo = Verde;
   981  0017E6  0E02               	movlw	2
   982  0017E8  6E0C               	movwf	(_jugador+1)^0,c
   983                           
   984                           ;pechera.c: 333: jugador.ID = 101;
   985  0017EA  0E65               	movlw	101
   986  0017EC  6E0D               	movwf	(_jugador+2)^0,c
   987                           
   988                           ;pechera.c: 334: jugador.Vida = 100;
   989  0017EE  0E64               	movlw	100
   990  0017F0  6E0E               	movwf	(_jugador+3)^0,c
   991                           
   992                           ;pechera.c: 335: jugador.Balas = 20;
   993  0017F2  0E14               	movlw	20
   994  0017F4  6E0F               	movwf	(_jugador+4)^0,c
   995                           
   996                           ;pechera.c: 336: jugador.BalasMax = 20;
   997  0017F6  0E14               	movlw	20
   998  0017F8  6E10               	movwf	(_jugador+5)^0,c
   999                           
  1000                           ;pechera.c: 337: jugador.Cargadores = 1;
  1001  0017FA  0E01               	movlw	1
  1002  0017FC  6E11               	movwf	(_jugador+6)^0,c
  1003                           
  1004                           ;pechera.c: 338: jugador.CargadoresMax = 5;
  1005  0017FE  0E05               	movlw	5
  1006  001800  6E12               	movwf	(_jugador+7)^0,c
  1007                           
  1008                           ;pechera.c: 339: for(char i = 0; i < 10; i++)
  1009  001802  0E00               	movlw	0
  1010  001804  6E3F               	movwf	InitDebug@i^0,c
  1011  001806                     l1671:
  1012                           
  1013                           ;pechera.c: 340: jugador.IDHitters[i] = 0;
  1014  001806  0E15               	movlw	low (_jugador+10)
  1015  001808  243F               	addwf	InitDebug@i^0,w,c
  1016  00180A  6ED9               	movwf	fsr2l,c
  1017  00180C  6ADA               	clrf	fsr2h,c
  1018  00180E  0E00               	movlw	high (_jugador+10)
  1019  001810  22DA               	addwfc	fsr2h,f,c
  1020  001812  0E00               	movlw	0
  1021  001814  6EDF               	movwf	indf2,c
  1022  001816  2A3F               	incf	InitDebug@i^0,f,c
  1023  001818  0E09               	movlw	9
  1024  00181A  643F               	cpfsgt	InitDebug@i^0,c
  1025  00181C  EF12  F00C         	goto	u721
  1026  001820  EF14  F00C         	goto	u720
  1027  001824                     u721:
  1028  001824  EF03  F00C         	goto	l1671
  1029  001828                     u720:
  1030  001828                     
  1031                           ;pechera.c: 341: jugador.contAssits = 0;
  1032  001828  0E00               	movlw	0
  1033  00182A  6E13               	movwf	(_jugador+8)^0,c
  1034                           
  1035                           ;pechera.c: 342: jugador.IDKiller = 0;
  1036  00182C  0E00               	movlw	0
  1037  00182E  6E14               	movwf	(_jugador+9)^0,c
  1038                           
  1039                           ;pechera.c: 344: jugador.Arma.damage = 15;
  1040  001830  0E0F               	movlw	15
  1041  001832  6E1F               	movwf	(_jugador+20)^0,c
  1042                           
  1043                           ;pechera.c: 345: jugador.Arma.tDisparos = 50;
  1044  001834  0E32               	movlw	50
  1045  001836  6E20               	movwf	(_jugador+21)^0,c
  1046                           
  1047                           ;pechera.c: 346: jugador.Arma.contDisparo = 0;
  1048  001838  0E00               	movlw	0
  1049  00183A  6E21               	movwf	(_jugador+22)^0,c
  1050                           
  1051                           ;pechera.c: 347: jugador.Arma.disparando = 0;
  1052  00183C  0E00               	movlw	0
  1053  00183E  6E22               	movwf	(_jugador+23)^0,c
  1054                           
  1055                           ;pechera.c: 348: jugador.Arma.habilDisparo = 0;
  1056  001840  0E00               	movlw	0
  1057  001842  6E23               	movwf	(_jugador+24)^0,c
  1058                           
  1059                           ;pechera.c: 350: jugador.Estadisticas.puntos = 0;
  1060  001844  0E00               	movlw	0
  1061  001846  6E29               	movwf	(_jugador+30)^0,c
  1062  001848  0E00               	movlw	0
  1063  00184A  6E28               	movwf	(_jugador+29)^0,c
  1064                           
  1065                           ;pechera.c: 351: jugador.Estadisticas.Kills = 0;
  1066  00184C  0E00               	movlw	0
  1067  00184E  6E24               	movwf	(_jugador+25)^0,c
  1068                           
  1069                           ;pechera.c: 352: jugador.Estadisticas.Deaths = 0;
  1070  001850  0E00               	movlw	0
  1071  001852  6E25               	movwf	(_jugador+26)^0,c
  1072                           
  1073                           ;pechera.c: 353: jugador.Estadisticas.Assists = 0;
  1074  001854  0E00               	movlw	0
  1075  001856  6E26               	movwf	(_jugador+27)^0,c
  1076                           
  1077                           ;pechera.c: 354: jugador.Estadisticas.Punteria = 0;
  1078  001858  0E00               	movlw	0
  1079  00185A  6E27               	movwf	(_jugador+28)^0,c
  1080                           
  1081                           ;pechera.c: 356: for(char i = 0; i < 3; i++)
  1082  00185C  0E00               	movlw	0
  1083  00185E  6E40               	movwf	InitDebug@i_2138^0,c
  1084  001860                     l1683:
  1085                           
  1086                           ;pechera.c: 357: {;pechera.c: 358: receptores[i].esperandoInicioRL = 1;
  1087  001860  5040               	movf	InitDebug@i_2138^0,w,c
  1088  001862  0D17               	mullw	23
  1089  001864  0E62               	movlw	low (_receptores+2)
  1090  001866  24F3               	addwf	243,w,c
  1091  001868  6ED9               	movwf	fsr2l,c
  1092  00186A  0E00               	movlw	high (_receptores+2)
  1093  00186C  20F4               	addwfc	prodh,w,c
  1094  00186E  6EDA               	movwf	fsr2h,c
  1095  001870  0E01               	movlw	1
  1096  001872  6EDF               	movwf	indf2,c
  1097                           
  1098                           ;pechera.c: 359: receptores[i].DatoLaser = 0;
  1099  001874  5040               	movf	InitDebug@i_2138^0,w,c
  1100  001876  0D17               	mullw	23
  1101  001878  0E63               	movlw	low (_receptores+3)
  1102  00187A  24F3               	addwf	243,w,c
  1103  00187C  6ED9               	movwf	fsr2l,c
  1104  00187E  0E00               	movlw	high (_receptores+3)
  1105  001880  20F4               	addwfc	prodh,w,c
  1106  001882  6EDA               	movwf	fsr2h,c
  1107  001884  0E00               	movlw	0
  1108  001886  6EDF               	movwf	indf2,c
  1109                           
  1110                           ;pechera.c: 360: receptores[i].contDatosRecL = 0;
  1111  001888  5040               	movf	InitDebug@i_2138^0,w,c
  1112  00188A  0D17               	mullw	23
  1113  00188C  0E73               	movlw	low (_receptores+19)
  1114  00188E  24F3               	addwf	243,w,c
  1115  001890  6ED9               	movwf	fsr2l,c
  1116  001892  0E00               	movlw	high (_receptores+19)
  1117  001894  20F4               	addwfc	prodh,w,c
  1118  001896  6EDA               	movwf	fsr2h,c
  1119  001898  0E00               	movlw	0
  1120  00189A  6EDF               	movwf	indf2,c
  1121                           
  1122                           ;pechera.c: 361: receptores[i].cantDatosRecL = 0;
  1123  00189C  5040               	movf	InitDebug@i_2138^0,w,c
  1124  00189E  0D17               	mullw	23
  1125  0018A0  0E74               	movlw	low (_receptores+20)
  1126  0018A2  24F3               	addwf	243,w,c
  1127  0018A4  6ED9               	movwf	fsr2l,c
  1128  0018A6  0E00               	movlw	high (_receptores+20)
  1129  0018A8  20F4               	addwfc	prodh,w,c
  1130  0018AA  6EDA               	movwf	fsr2h,c
  1131  0018AC  0E00               	movlw	0
  1132  0018AE  6EDF               	movwf	indf2,c
  1133                           
  1134                           ;pechera.c: 362: receptores[i].nBitR = 0;
  1135  0018B0  5040               	movf	InitDebug@i_2138^0,w,c
  1136  0018B2  0D17               	mullw	23
  1137  0018B4  0E75               	movlw	low (_receptores+21)
  1138  0018B6  24F3               	addwf	243,w,c
  1139  0018B8  6ED9               	movwf	fsr2l,c
  1140  0018BA  0E00               	movlw	high (_receptores+21)
  1141  0018BC  20F4               	addwfc	prodh,w,c
  1142  0018BE  6EDA               	movwf	fsr2h,c
  1143  0018C0  0E00               	movlw	0
  1144  0018C2  6EDF               	movwf	indf2,c
  1145                           
  1146                           ;pechera.c: 363: receptores[i].DatosLRecibidoFlag = 0;
  1147  0018C4  5040               	movf	InitDebug@i_2138^0,w,c
  1148  0018C6  0D17               	mullw	23
  1149  0018C8  0E76               	movlw	low (_receptores+22)
  1150  0018CA  24F3               	addwf	243,w,c
  1151  0018CC  6ED9               	movwf	fsr2l,c
  1152  0018CE  0E00               	movlw	high (_receptores+22)
  1153  0018D0  20F4               	addwfc	prodh,w,c
  1154  0018D2  6EDA               	movwf	fsr2h,c
  1155  0018D4  0E00               	movlw	0
  1156  0018D6  6EDF               	movwf	indf2,c
  1157  0018D8  2A40               	incf	InitDebug@i_2138^0,f,c
  1158  0018DA  0E02               	movlw	2
  1159  0018DC  6440               	cpfsgt	InitDebug@i_2138^0,c
  1160  0018DE  EF73  F00C         	goto	u731
  1161  0018E2  EF75  F00C         	goto	u730
  1162  0018E6                     u731:
  1163  0018E6  EF30  F00C         	goto	l1683
  1164  0018EA                     u730:
  1165  0018EA                     
  1166                           ;pechera.c: 364: };pechera.c: 366: debug.Transmitiendo = 0;
  1167  0018EA  0E00               	movlw	0
  1168  0018EC  0100               	movlb	0	; () banked
  1169  0018EE  6FD9               	movwf	(_debug+52)& (0+255),b
  1170                           
  1171                           ;pechera.c: 367: debug.CantDatos = 1;
  1172  0018F0  0E01               	movlw	1
  1173  0018F2  6FD8               	movwf	(_debug+51)& (0+255),b
  1174                           
  1175                           ;pechera.c: 368: debug.cont = 0;
  1176  0018F4  0E00               	movlw	0
  1177  0018F6  6FD7               	movwf	(_debug+50)& (0+255),b
  1178                           
  1179                           ;pechera.c: 369: debug.Datos[0] = 0;
  1180  0018F8  0E00               	movlw	0
  1181  0018FA  6FA5               	movwf	_debug& (0+255),b
  1182  0018FC                     
  1183                           ; BSR set to: 0
  1184  0018FC  0012               	return		;funcret
  1185  0018FE                     __end_of_InitDebug:
  1186                           	opt callstack 0
  1187                           
  1188 ;; *************** function _EUSARTEnviar2 *****************
  1189 ;; Defined at:
  1190 ;;		line 35 in file "EUSART.c"
  1191 ;; Parameters:    Size  Location     Type
  1192 ;;  reg             2   15[COMRAM] PTR unsigned char 
  1193 ;;		 -> TXREG2(1), 
  1194 ;;  e               2   17[COMRAM] PTR struct eusart
  1195 ;;		 -> debug(53), 
  1196 ;; Auto vars:     Size  Location     Type
  1197 ;;		None
  1198 ;; Return value:  Size  Location     Type
  1199 ;;                  1    wreg      void 
  1200 ;; Registers used:
  1201 ;;		wreg, fsr1l, fsr1h, fsr2l, fsr2h, status,2, status,0
  1202 ;; Tracked objects:
  1203 ;;		On entry : 0/0
  1204 ;;		On exit  : 0/0
  1205 ;;		Unchanged: 0/0
  1206 ;; Data sizes:     COMRAM   BANK0   BANK1   BANK2   BANK3   BANK4   BANK5   BANK6   BANK7   BANK8   BANK9  BANK10  BANK1
      +1  BANK12  BANK13  BANK14  BANK15
  1207 ;;      Params:         4       0       0       0       0       0       0       0       0       0       0       0       
      +0       0       0       0       0
  1208 ;;      Locals:         0       0       0       0       0       0       0       0       0       0       0       0       
      +0       0       0       0       0
  1209 ;;      Temps:          0       0       0       0       0       0       0       0       0       0       0       0       
      +0       0       0       0       0
  1210 ;;      Totals:         4       0       0       0       0       0       0       0       0       0       0       0       
      +0       0       0       0       0
  1211 ;;Total ram usage:        4 bytes
  1212 ;; Hardware stack levels used:    1
  1213 ;; Hardware stack levels required when called:    3
  1214 ;; This function calls:
  1215 ;;		Nothing
  1216 ;; This function is called by:
  1217 ;;		_main
  1218 ;; This function uses a non-reentrant model
  1219 ;;
  1220                           
  1221                           	psect	text3
  1222  001A24                     __ptext3:
  1223                           	opt callstack 0
  1224  001A24                     _EUSARTEnviar2:
  1225                           	opt callstack 27
  1226  001A24                     
  1227                           ;EUSART.c: 37: e->Transmitiendo = 1;
  1228  001A24  EE20 F034          	lfsr	2,52
  1229  001A28  5041               	movf	EUSARTEnviar2@e^0,w,c
  1230  001A2A  26D9               	addwf	fsr2l,f,c
  1231  001A2C  5042               	movf	(EUSARTEnviar2@e+1)^0,w,c
  1232  001A2E  22DA               	addwfc	fsr2h,f,c
  1233  001A30  0E01               	movlw	1
  1234  001A32  6EDF               	movwf	indf2,c
  1235                           
  1236                           ;EUSART.c: 38: e->cont = 1;
  1237  001A34  EE20 F032          	lfsr	2,50
  1238  001A38  5041               	movf	EUSARTEnviar2@e^0,w,c
  1239  001A3A  26D9               	addwf	fsr2l,f,c
  1240  001A3C  5042               	movf	(EUSARTEnviar2@e+1)^0,w,c
  1241  001A3E  22DA               	addwfc	fsr2h,f,c
  1242  001A40  0E01               	movlw	1
  1243  001A42  6EDF               	movwf	indf2,c
  1244  001A44                     
  1245                           ;EUSART.c: 39: *reg = e->Datos[0];
  1246  001A44  C041  FFD9         	movff	EUSARTEnviar2@e,fsr2l
  1247  001A48  C042  FFDA         	movff	EUSARTEnviar2@e+1,fsr2h
  1248  001A4C  C03F  FFE1         	movff	EUSARTEnviar2@reg,fsr1l
  1249  001A50  C040  FFE2         	movff	EUSARTEnviar2@reg+1,fsr1h
  1250  001A54  CFDF FFE7          	movff	indf2,indf1
  1251  001A58                     
  1252                           ;EUSART.c: 40: PIE3bits.TX2IE = 1;
  1253  001A58  88A3               	bsf	163,4,c	;volatile
  1254  001A5A  0012               	return		;funcret
  1255  001A5C                     __end_of_EUSARTEnviar2:
  1256                           	opt callstack 0
  1257                           
  1258 ;; *************** function _Config *****************
  1259 ;; Defined at:
  1260 ;;		line 12 in file "config.c"
  1261 ;; Parameters:    Size  Location     Type
  1262 ;;		None
  1263 ;; Auto vars:     Size  Location     Type
  1264 ;;		None
  1265 ;; Return value:  Size  Location     Type
  1266 ;;                  1    wreg      void 
  1267 ;; Registers used:
  1268 ;;		wreg, status,2
  1269 ;; Tracked objects:
  1270 ;;		On entry : 0/0
  1271 ;;		On exit  : 0/0
  1272 ;;		Unchanged: 0/0
  1273 ;; Data sizes:     COMRAM   BANK0   BANK1   BANK2   BANK3   BANK4   BANK5   BANK6   BANK7   BANK8   BANK9  BANK10  BANK1
      +1  BANK12  BANK13  BANK14  BANK15
  1274 ;;      Params:         0       0       0       0       0       0       0       0       0       0       0       0       
      +0       0       0       0       0
  1275 ;;      Locals:         0       0       0       0       0       0       0       0       0       0       0       0       
      +0       0       0       0       0
  1276 ;;      Temps:          0       0       0       0       0       0       0       0       0       0       0       0       
      +0       0       0       0       0
  1277 ;;      Totals:         0       0       0       0       0       0       0       0       0       0       0       0       
      +0       0       0       0       0
  1278 ;;Total ram usage:        0 bytes
  1279 ;; Hardware stack levels used:    1
  1280 ;; Hardware stack levels required when called:    3
  1281 ;; This function calls:
  1282 ;;		Nothing
  1283 ;; This function is called by:
  1284 ;;		_main
  1285 ;; This function uses a non-reentrant model
  1286 ;;
  1287                           
  1288                           	psect	text4
  1289  0018FE                     __ptext4:
  1290                           	opt callstack 0
  1291  0018FE                     _Config:
  1292                           	opt callstack 27
  1293  0018FE                     
  1294                           ;config.c: 15: ANSELA = 1;
  1295  0018FE  0E01               	movlw	1
  1296  001900  010F               	movlb	15	; () banked
  1297  001902  6F38               	movwf	56,b	;volatile
  1298                           
  1299                           ;config.c: 16: TRISA = 1;
  1300  001904  0E01               	movlw	1
  1301  001906  6E92               	movwf	146,c	;volatile
  1302                           
  1303                           ;config.c: 17: LATA = 0;
  1304  001908  0E00               	movlw	0
  1305  00190A  6E89               	movwf	137,c	;volatile
  1306                           
  1307                           ;config.c: 20: ANSELB = 0;
  1308  00190C  0E00               	movlw	0
  1309  00190E  6F39               	movwf	57,b	;volatile
  1310                           
  1311                           ;config.c: 21: LATB = 0;
  1312  001910  0E00               	movlw	0
  1313  001912  6E8A               	movwf	138,c	;volatile
  1314  001914                     
  1315                           ; BSR set to: 15
  1316                           ;config.c: 22: TRISB = 255;
  1317  001914  6893               	setf	147,c	;volatile
  1318                           
  1319                           ;config.c: 23: WPUB = 0;
  1320  001916  0E00               	movlw	0
  1321  001918  6E61               	movwf	97,c	;volatile
  1322                           
  1323                           ;config.c: 26: ANSELC = 0;
  1324  00191A  0E00               	movlw	0
  1325  00191C  6F3A               	movwf	58,b	;volatile
  1326  00191E                     
  1327                           ; BSR set to: 15
  1328                           ;config.c: 27: TRISCbits.TRISC0 = 0;
  1329  00191E  9094               	bcf	148,0,c	;volatile
  1330                           
  1331                           ;config.c: 30: ANSELD = 0;
  1332  001920  0E00               	movlw	0
  1333  001922  6F3B               	movwf	59,b	;volatile
  1334                           
  1335                           ;config.c: 31: TRISD = 192;
  1336  001924  0EC0               	movlw	192
  1337  001926  6E95               	movwf	149,c	;volatile
  1338                           
  1339                           ;config.c: 34: TRISE = 0;
  1340  001928  0E00               	movlw	0
  1341  00192A  6E96               	movwf	150,c	;volatile
  1342  00192C                     
  1343                           ; BSR set to: 15
  1344                           ;config.c: 37: INTCONbits.INT0IE = 0;
  1345  00192C  98F2               	bcf	242,4,c	;volatile
  1346  00192E                     
  1347                           ; BSR set to: 15
  1348                           ;config.c: 40: INTCON3bits.INT2IP = 1;
  1349  00192E  8EF0               	bsf	240,7,c	;volatile
  1350  001930                     
  1351                           ; BSR set to: 15
  1352                           ;config.c: 41: INTCON3bits.INT2E = 1;
  1353  001930  88F0               	bsf	240,4,c	;volatile
  1354  001932                     
  1355                           ; BSR set to: 15
  1356                           ;config.c: 44: T0CONbits.T08BIT = 0;
  1357  001932  9CD5               	bcf	213,6,c	;volatile
  1358  001934                     
  1359                           ; BSR set to: 15
  1360                           ;config.c: 45: T0CONbits.T0CS = 0;
  1361  001934  9AD5               	bcf	213,5,c	;volatile
  1362  001936                     
  1363                           ; BSR set to: 15
  1364                           ;config.c: 46: T0CONbits.PSA = 0;
  1365  001936  96D5               	bcf	213,3,c	;volatile
  1366                           
  1367                           ;config.c: 47: T0CONbits.T0PS = 2;
  1368  001938  50D5               	movf	213,w,c	;volatile
  1369  00193A  0BF8               	andlw	-8
  1370  00193C  0902               	iorlw	2
  1371  00193E  6ED5               	movwf	213,c	;volatile
  1372                           
  1373                           ;config.c: 48: TMR0H = 99;
  1374  001940  0E63               	movlw	99
  1375  001942  6ED7               	movwf	215,c	;volatile
  1376                           
  1377                           ;config.c: 49: TMR0L = 191;
  1378  001944  0EBF               	movlw	191
  1379  001946  6ED6               	movwf	214,c	;volatile
  1380  001948                     
  1381                           ; BSR set to: 15
  1382                           ;config.c: 50: INTCON2bits.TMR0IP = 0;
  1383  001948  94F1               	bcf	241,2,c	;volatile
  1384  00194A                     
  1385                           ; BSR set to: 15
  1386                           ;config.c: 51: INTCONbits.TMR0IE = 1;
  1387  00194A  8AF2               	bsf	242,5,c	;volatile
  1388                           
  1389                           ;config.c: 54: T4CONbits.T4OUTPS = 10;
  1390  00194C  5151               	movf	81,w,b	;volatile
  1391  00194E  0B87               	andlw	-121
  1392  001950  0950               	iorlw	80
  1393  001952  6F51               	movwf	81,b	;volatile
  1394                           
  1395                           ;config.c: 55: T4CONbits.T4CKPS = 0;
  1396  001954  0EFC               	movlw	-4
  1397  001956  1751               	andwf	81,f,b	;volatile
  1398                           
  1399                           ;config.c: 56: PR4 = 203;
  1400  001958  0ECB               	movlw	203
  1401  00195A  6F52               	movwf	82,b	;volatile
  1402  00195C                     
  1403                           ; BSR set to: 15
  1404                           ;config.c: 57: IPR5bits.TMR4IP = 1;
  1405  00195C  807F               	bsf	127,0,c	;volatile
  1406  00195E                     
  1407                           ; BSR set to: 15
  1408                           ;config.c: 58: T4CONbits.TMR4ON = 0;
  1409  00195E  9551               	bcf	81,2,b	;volatile
  1410  001960                     
  1411                           ; BSR set to: 15
  1412                           ;config.c: 59: PIE5bits.TMR4IE = 1;
  1413  001960  807D               	bsf	125,0,c	;volatile
  1414  001962                     
  1415                           ; BSR set to: 15
  1416                           ;config.c: 62: TRISCbits.TRISC2 = 1;
  1417  001962  8494               	bsf	148,2,c	;volatile
  1418                           
  1419                           ;config.c: 63: CCPTMRS0bits.C1TSEL = 0;
  1420  001964  0EFC               	movlw	-4
  1421  001966  1749               	andwf	73,f,b	;volatile
  1422                           
  1423                           ;config.c: 64: CCP1CONbits.CCP1M = 5;
  1424  001968  50BD               	movf	189,w,c	;volatile
  1425  00196A  0BF0               	andlw	-16
  1426  00196C  0905               	iorlw	5
  1427  00196E  6EBD               	movwf	189,c	;volatile
  1428  001970                     
  1429                           ; BSR set to: 15
  1430                           ;config.c: 65: T1CONbits.TMR1ON = 1;
  1431  001970  80CD               	bsf	205,0,c	;volatile
  1432  001972                     
  1433                           ; BSR set to: 15
  1434                           ;config.c: 66: IPR1bits.CCP1IP = 0;
  1435  001972  949F               	bcf	159,2,c	;volatile
  1436  001974                     
  1437                           ; BSR set to: 15
  1438                           ;config.c: 67: PIE1bits.CCP1IE = 1;
  1439  001974  849D               	bsf	157,2,c	;volatile
  1440  001976                     
  1441                           ; BSR set to: 15
  1442                           ;config.c: 70: TRISCbits.TRISC1 = 1;
  1443  001976  8294               	bsf	148,1,c	;volatile
  1444                           
  1445                           ;config.c: 71: CCPTMRS0bits.C2TSEL = 1;
  1446  001978  5149               	movf	73,w,b	;volatile
  1447  00197A  0BE7               	andlw	-25
  1448  00197C  0908               	iorlw	8
  1449  00197E  6F49               	movwf	73,b	;volatile
  1450                           
  1451                           ;config.c: 72: CCP2CONbits.CCP2M = 5;
  1452  001980  5066               	movf	102,w,c	;volatile
  1453  001982  0BF0               	andlw	-16
  1454  001984  0905               	iorlw	5
  1455  001986  6E66               	movwf	102,c	;volatile
  1456  001988                     
  1457                           ; BSR set to: 15
  1458                           ;config.c: 73: T3CONbits.TMR3ON = 1;
  1459  001988  80B1               	bsf	177,0,c	;volatile
  1460  00198A                     
  1461                           ; BSR set to: 15
  1462                           ;config.c: 74: IPR2bits.CCP2IP = 0;
  1463  00198A  90A2               	bcf	162,0,c	;volatile
  1464  00198C                     
  1465                           ; BSR set to: 15
  1466                           ;config.c: 75: PIE2bits.CCP2IE = 1;
  1467  00198C  80A0               	bsf	160,0,c	;volatile
  1468  00198E                     
  1469                           ; BSR set to: 15
  1470                           ;config.c: 78: TRISEbits.TRISE0 = 1;
  1471  00198E  8096               	bsf	150,0,c	;volatile
  1472                           
  1473                           ;config.c: 79: CCPTMRS0bits.C3TSEL = 2;
  1474  001990  5149               	movf	73,w,b	;volatile
  1475  001992  0B3F               	andlw	-193
  1476  001994  0980               	iorlw	128
  1477  001996  6F49               	movwf	73,b	;volatile
  1478                           
  1479                           ;config.c: 80: CCP3CONbits.CCP3M = 5;
  1480  001998  515D               	movf	93,w,b	;volatile
  1481  00199A  0BF0               	andlw	-16
  1482  00199C  0905               	iorlw	5
  1483  00199E  6F5D               	movwf	93,b	;volatile
  1484  0019A0                     
  1485                           ; BSR set to: 15
  1486                           ;config.c: 81: T5CONbits.TMR5ON = 1;
  1487  0019A0  814E               	bsf	78,0,b	;volatile
  1488  0019A2                     
  1489                           ; BSR set to: 15
  1490                           ;config.c: 82: IPR4bits.CCP3IP = 0;
  1491  0019A2  907C               	bcf	124,0,c	;volatile
  1492  0019A4                     
  1493                           ; BSR set to: 15
  1494                           ;config.c: 83: PIE4bits.CCP3IE = 1;
  1495  0019A4  807A               	bsf	122,0,c	;volatile
  1496  0019A6                     
  1497                           ; BSR set to: 15
  1498                           ;config.c: 86: TRISCbits.TRISC3 = 0;
  1499  0019A6  9694               	bcf	148,3,c	;volatile
  1500  0019A8                     
  1501                           ; BSR set to: 15
  1502                           ;config.c: 87: TRISCbits.TRISC4 = 1;
  1503  0019A8  8894               	bsf	148,4,c	;volatile
  1504  0019AA                     
  1505                           ; BSR set to: 15
  1506                           ;config.c: 88: TRISCbits.TRISC5 = 0;
  1507  0019AA  9A94               	bcf	148,5,c	;volatile
  1508  0019AC                     
  1509                           ; BSR set to: 15
  1510                           ;config.c: 89: SSP1STATbits.SMP = 0;
  1511  0019AC  9EC7               	bcf	199,7,c	;volatile
  1512  0019AE                     
  1513                           ; BSR set to: 15
  1514                           ;config.c: 90: SSP1STATbits.CKE = 1;
  1515  0019AE  8CC7               	bsf	199,6,c	;volatile
  1516  0019B0                     
  1517                           ; BSR set to: 15
  1518                           ;config.c: 91: SSP1CON1bits.CKP = 0;
  1519  0019B0  98C6               	bcf	198,4,c	;volatile
  1520                           
  1521                           ;config.c: 92: SSP1CON1bits.SSPM = 2;
  1522  0019B2  50C6               	movf	198,w,c	;volatile
  1523  0019B4  0BF0               	andlw	-16
  1524  0019B6  0902               	iorlw	2
  1525  0019B8  6EC6               	movwf	198,c	;volatile
  1526  0019BA                     
  1527                           ; BSR set to: 15
  1528                           ;config.c: 93: SSP1CON1bits.SSPEN = 1;
  1529  0019BA  8AC6               	bsf	198,5,c	;volatile
  1530  0019BC                     
  1531                           ; BSR set to: 15
  1532                           ;config.c: 94: IPR1bits.SSP1IP = 0;
  1533  0019BC  969F               	bcf	159,3,c	;volatile
  1534  0019BE                     
  1535                           ; BSR set to: 15
  1536                           ;config.c: 95: PIE1bits.SSP1IE = 1;
  1537  0019BE  869D               	bsf	157,3,c	;volatile
  1538  0019C0                     
  1539                           ; BSR set to: 15
  1540                           ;config.c: 98: BAUDCON2bits.BRG16 = 1;
  1541  0019C0  8670               	bsf	112,3,c	;volatile
  1542  0019C2                     
  1543                           ; BSR set to: 15
  1544                           ;config.c: 99: TXSTA2bits.BRGH = 0;
  1545  0019C2  9472               	bcf	114,2,c	;volatile
  1546  0019C4                     
  1547                           ; BSR set to: 15
  1548                           ;config.c: 100: TXSTA2bits.SYNC = 0;
  1549  0019C4  9872               	bcf	114,4,c	;volatile
  1550                           
  1551                           ;config.c: 101: SPBRG2 = 0xA0;
  1552  0019C6  0EA0               	movlw	160
  1553  0019C8  6E75               	movwf	117,c	;volatile
  1554                           
  1555                           ;config.c: 102: SPBRGH2 = 0x01;
  1556  0019CA  0E01               	movlw	1
  1557  0019CC  6E76               	movwf	118,c	;volatile
  1558  0019CE                     
  1559                           ; BSR set to: 15
  1560                           ;config.c: 103: RCSTA2bits.CREN = 0;
  1561  0019CE  9871               	bcf	113,4,c	;volatile
  1562  0019D0                     
  1563                           ; BSR set to: 15
  1564                           ;config.c: 104: TXSTA2bits.TXEN = 1;
  1565  0019D0  8A72               	bsf	114,5,c	;volatile
  1566  0019D2                     
  1567                           ; BSR set to: 15
  1568                           ;config.c: 105: PIR3bits.TX2IF = 0;
  1569  0019D2  98A4               	bcf	164,4,c	;volatile
  1570  0019D4                     
  1571                           ; BSR set to: 15
  1572                           ;config.c: 106: RCSTA2bits.SPEN = 1;
  1573  0019D4  8E71               	bsf	113,7,c	;volatile
  1574  0019D6                     
  1575                           ; BSR set to: 15
  1576                           ;config.c: 107: IPR3bits.TX2IP = 0;
  1577  0019D6  98A5               	bcf	165,4,c	;volatile
  1578  0019D8                     
  1579                           ; BSR set to: 15
  1580                           ;config.c: 108: PIE3bits.TX2IE = 1;
  1581  0019D8  88A3               	bsf	163,4,c	;volatile
  1582  0019DA                     
  1583                           ; BSR set to: 15
  1584                           ;config.c: 110: RCONbits.IPEN = 1;
  1585  0019DA  8ED0               	bsf	208,7,c	;volatile
  1586  0019DC                     
  1587                           ; BSR set to: 15
  1588                           ;config.c: 111: INTCONbits.GIEH = 1;
  1589  0019DC  8EF2               	bsf	242,7,c	;volatile
  1590  0019DE                     
  1591                           ; BSR set to: 15
  1592                           ;config.c: 112: INTCONbits.GIEL = 1;
  1593  0019DE  8CF2               	bsf	242,6,c	;volatile
  1594  0019E0                     
  1595                           ; BSR set to: 15
  1596  0019E0  0012               	return		;funcret
  1597  0019E2                     __end_of_Config:
  1598                           	opt callstack 0
  1599                           
  1600 ;; *************** function _IRS_Low *****************
  1601 ;; Defined at:
  1602 ;;		line 224 in file "pechera.c"
  1603 ;; Parameters:    Size  Location     Type
  1604 ;;		None
  1605 ;; Auto vars:     Size  Location     Type
  1606 ;;		None
  1607 ;; Return value:  Size  Location     Type
  1608 ;;                  1    wreg      void 
  1609 ;; Registers used:
  1610 ;;		wreg, fsr1l, fsr1h, fsr2l, fsr2h, status,2, status,0, cstack
  1611 ;; Tracked objects:
  1612 ;;		On entry : 0/0
  1613 ;;		On exit  : 0/0
  1614 ;;		Unchanged: 0/0
  1615 ;; Data sizes:     COMRAM   BANK0   BANK1   BANK2   BANK3   BANK4   BANK5   BANK6   BANK7   BANK8   BANK9  BANK10  BANK1
      +1  BANK12  BANK13  BANK14  BANK15
  1616 ;;      Params:         0       0       0       0       0       0       0       0       0       0       0       0       
      +0       0       0       0       0
  1617 ;;      Locals:         0       0       0       0       0       0       0       0       0       0       0       0       
      +0       0       0       0       0
  1618 ;;      Temps:          7       0       0       0       0       0       0       0       0       0       0       0       
      +0       0       0       0       0
  1619 ;;      Totals:         7       0       0       0       0       0       0       0       0       0       0       0       
      +0       0       0       0       0
  1620 ;;Total ram usage:        7 bytes
  1621 ;; Hardware stack levels used:    1
  1622 ;; Hardware stack levels required when called:    2
  1623 ;; This function calls:
  1624 ;;		_Capture
  1625 ;;		i1_EUSARTEnviar2
  1626 ;; This function is called by:
  1627 ;;		Interrupt level 1
  1628 ;; This function uses a non-reentrant model
  1629 ;;
  1630                           
  1631                           	psect	intcodelo
  1632  000018                     __pintcodelo:
  1633                           	opt callstack 0
  1634  000018                     _IRS_Low:
  1635                           	opt callstack 27
  1636                           
  1637                           ; BSR set to: 15
  1638                           ;incstack = 0
  1639  000018  804C               	bsf	int$flags,0,c	;set compiler interrupt flag (level 1)
  1640  00001A  CFD8 F038          	movff	status,??_IRS_Low
  1641  00001E  CFE8 F039          	movff	wreg,??_IRS_Low+1
  1642  000022  CFE0 F03A          	movff	bsr,??_IRS_Low+2
  1643  000026  CFE1 F03B          	movff	fsr1l,??_IRS_Low+3
  1644  00002A  CFE2 F03C          	movff	fsr1h,??_IRS_Low+4
  1645  00002E  CFD9 F03D          	movff	fsr2l,??_IRS_Low+5
  1646  000032  CFDA F03E          	movff	fsr2h,??_IRS_Low+6
  1647  000036                     
  1648                           ;pechera.c: 227: if(PIE1bits.CCP1IE && PIR1bits.CCP1IF)
  1649  000036  A49D               	btfss	157,2,c	;volatile
  1650  000038  EF20  F000         	goto	i1u96_21
  1651  00003C  EF22  F000         	goto	i1u96_20
  1652  000040                     i1u96_21:
  1653  000040  EF38  F000         	goto	i1l1811
  1654  000044                     i1u96_20:
  1655  000044  A49E               	btfss	158,2,c	;volatile
  1656  000046  EF27  F000         	goto	i1u97_21
  1657  00004A  EF29  F000         	goto	i1u97_20
  1658  00004E                     i1u97_21:
  1659  00004E  EF38  F000         	goto	i1l1811
  1660  000052                     i1u97_20:
  1661  000052                     
  1662                           ;pechera.c: 228: {;pechera.c: 229: TMR1L = 0;
  1663  000052  0E00               	movlw	0
  1664  000054  6ECE               	movwf	206,c	;volatile
  1665                           
  1666                           ;pechera.c: 230: TMR1H = 0;
  1667  000056  0E00               	movlw	0
  1668  000058  6ECF               	movwf	207,c	;volatile
  1669  00005A                     
  1670                           ;pechera.c: 232: receptores[0].capturado._8L = CCPR1L;
  1671  00005A  CFBE F060          	movff	4030,_receptores	;volatile
  1672  00005E                     
  1673                           ;pechera.c: 233: receptores[0].capturado._8H = CCPR1H;
  1674  00005E  CFBF F061          	movff	4031,_receptores+1	;volatile
  1675  000062                     
  1676                           ;pechera.c: 235: Capture(&receptores[0]);
  1677  000062  0E60               	movlw	low _receptores
  1678  000064  6E32               	movwf	Capture@reception^0,c
  1679  000066  0E00               	movlw	high _receptores
  1680  000068  6E33               	movwf	(Capture@reception+1)^0,c
  1681  00006A  EC02  F008         	call	_Capture	;wreg free
  1682  00006E                     
  1683                           ;pechera.c: 237: PIR1bits.CCP1IF = 0;
  1684  00006E  949E               	bcf	158,2,c	;volatile
  1685  000070                     i1l1811:
  1686                           
  1687                           ;pechera.c: 238: };pechera.c: 241: if(PIE2bits.CCP2IE && PIR2bits.CCP2IF)
  1688  000070  A0A0               	btfss	160,0,c	;volatile
  1689  000072  EF3D  F000         	goto	i1u98_21
  1690  000076  EF3F  F000         	goto	i1u98_20
  1691  00007A                     i1u98_21:
  1692  00007A  EF55  F000         	goto	i1l1825
  1693  00007E                     i1u98_20:
  1694  00007E  A0A1               	btfss	161,0,c	;volatile
  1695  000080  EF44  F000         	goto	i1u99_21
  1696  000084  EF46  F000         	goto	i1u99_20
  1697  000088                     i1u99_21:
  1698  000088  EF55  F000         	goto	i1l1825
  1699  00008C                     i1u99_20:
  1700  00008C                     
  1701                           ;pechera.c: 242: {;pechera.c: 243: TMR3L = 0;
  1702  00008C  0E00               	movlw	0
  1703  00008E  6EB2               	movwf	178,c	;volatile
  1704                           
  1705                           ;pechera.c: 244: TMR3H = 0;
  1706  000090  0E00               	movlw	0
  1707  000092  6EB3               	movwf	179,c	;volatile
  1708  000094                     
  1709                           ;pechera.c: 247: receptores[1].capturado._8L = CCPR3L;
  1710  000094  CF5E F077          	movff	3934,_receptores+23	;volatile
  1711  000098                     
  1712                           ;pechera.c: 248: receptores[1].capturado._8H = CCPR3H;
  1713  000098  CF5F F078          	movff	3935,_receptores+24	;volatile
  1714  00009C                     
  1715                           ;pechera.c: 250: Capture(&receptores[1]);
  1716  00009C  0E77               	movlw	low (_receptores+23)
  1717  00009E  6E32               	movwf	Capture@reception^0,c
  1718  0000A0  0E00               	movlw	high (_receptores+23)
  1719  0000A2  6E33               	movwf	(Capture@reception+1)^0,c
  1720  0000A4  EC02  F008         	call	_Capture	;wreg free
  1721  0000A8                     
  1722                           ;pechera.c: 252: PIR2bits.CCP2IF = 0;
  1723  0000A8  90A1               	bcf	161,0,c	;volatile
  1724  0000AA                     i1l1825:
  1725                           
  1726                           ;pechera.c: 253: };pechera.c: 256: if(PIE4bits.CCP3IE && PIR4bits.CCP3IF)
  1727  0000AA  A07A               	btfss	122,0,c	;volatile
  1728  0000AC  EF5A  F000         	goto	i1u100_21
  1729  0000B0  EF5C  F000         	goto	i1u100_20
  1730  0000B4                     i1u100_21:
  1731  0000B4  EF73  F000         	goto	i1l1839
  1732  0000B8                     i1u100_20:
  1733  0000B8  A07B               	btfss	123,0,c	;volatile
  1734  0000BA  EF61  F000         	goto	i1u101_21
  1735  0000BE  EF63  F000         	goto	i1u101_20
  1736  0000C2                     i1u101_21:
  1737  0000C2  EF73  F000         	goto	i1l1839
  1738  0000C6                     i1u101_20:
  1739  0000C6                     
  1740                           ;pechera.c: 257: {;pechera.c: 258: TMR5L = 0;
  1741  0000C6  0E00               	movlw	0
  1742  0000C8  010F               	movlb	15	; () banked
  1743  0000CA  6F4F               	movwf	79,b	;volatile
  1744                           
  1745                           ;pechera.c: 259: TMR5H = 0;
  1746  0000CC  0E00               	movlw	0
  1747  0000CE  6F50               	movwf	80,b	;volatile
  1748  0000D0                     
  1749                           ; BSR set to: 15
  1750                           ;pechera.c: 261: receptores[2].capturado._8L = CCPR5L;
  1751  0000D0  CF55 F08E          	movff	3925,_receptores+46	;volatile
  1752  0000D4                     
  1753                           ; BSR set to: 15
  1754                           ;pechera.c: 262: receptores[2].capturado._8H = CCPR5H;
  1755  0000D4  CF56 F08F          	movff	3926,_receptores+47	;volatile
  1756  0000D8                     
  1757                           ; BSR set to: 15
  1758                           ;pechera.c: 264: Capture(&receptores[2]);
  1759  0000D8  0E8E               	movlw	low (_receptores+46)
  1760  0000DA  6E32               	movwf	Capture@reception^0,c
  1761  0000DC  0E00               	movlw	high (_receptores+46)
  1762  0000DE  6E33               	movwf	(Capture@reception+1)^0,c
  1763  0000E0  EC02  F008         	call	_Capture	;wreg free
  1764  0000E4                     
  1765                           ;pechera.c: 266: PIR4bits.CCP3IF = 0;
  1766  0000E4  907B               	bcf	123,0,c	;volatile
  1767  0000E6                     i1l1839:
  1768                           
  1769                           ;pechera.c: 267: };pechera.c: 269: if(INTCONbits.T0IE && INTCONbits.T0IF)
  1770  0000E6  AAF2               	btfss	242,5,c	;volatile
  1771  0000E8  EF78  F000         	goto	i1u102_21
  1772  0000EC  EF7A  F000         	goto	i1u102_20
  1773  0000F0                     i1u102_21:
  1774  0000F0  EFBE  F000         	goto	i1l1865
  1775  0000F4                     i1u102_20:
  1776  0000F4  A4F2               	btfss	242,2,c	;volatile
  1777  0000F6  EF7F  F000         	goto	i1u103_21
  1778  0000FA  EF81  F000         	goto	i1u103_20
  1779  0000FE                     i1u103_21:
  1780  0000FE  EFBE  F000         	goto	i1l1865
  1781  000102                     i1u103_20:
  1782  000102                     
  1783                           ;pechera.c: 270: {;pechera.c: 271: TMR0H = 99;
  1784  000102  0E63               	movlw	99
  1785  000104  6ED7               	movwf	215,c	;volatile
  1786                           
  1787                           ;pechera.c: 272: TMR0L = 191;
  1788  000106  0EBF               	movlw	191
  1789  000108  6ED6               	movwf	214,c	;volatile
  1790  00010A                     
  1791                           ;pechera.c: 274: LA3 ^= 1;
  1792  00010A  7689               	btg	3977,3,c	;volatile
  1793                           
  1794                           ;pechera.c: 275: if(jugador.estado == Vivo)
  1795  00010C  500B               	movf	_jugador^0,w,c
  1796  00010E  A4D8               	btfss	status,2,c
  1797  000110  EF8C  F000         	goto	i1u104_21
  1798  000114  EF8E  F000         	goto	i1u104_20
  1799  000118                     i1u104_21:
  1800  000118  EFA4  F000         	goto	i1l1855
  1801  00011C                     i1u104_20:
  1802  00011C                     
  1803                           ;pechera.c: 276: {;pechera.c: 277: if(jugador.Arma.disparando)
  1804  00011C  5022               	movf	(_jugador+23)^0,w,c
  1805  00011E  B4D8               	btfsc	status,2,c
  1806  000120  EF94  F000         	goto	i1u105_21
  1807  000124  EF96  F000         	goto	i1u105_20
  1808  000128                     i1u105_21:
  1809  000128  EFA4  F000         	goto	i1l1855
  1810  00012C                     i1u105_20:
  1811  00012C                     
  1812                           ;pechera.c: 278: {;pechera.c: 279: jugador.Arma.contDisparo++;
  1813  00012C  2A21               	incf	(_jugador+22)^0,f,c
  1814  00012E                     
  1815                           ;pechera.c: 280: if(jugador.Arma.contDisparo == jugador.Arma.tDisparos)
  1816  00012E  5020               	movf	(_jugador+21)^0,w,c
  1817  000130  1821               	xorwf	(_jugador+22)^0,w,c
  1818  000132  A4D8               	btfss	status,2,c
  1819  000134  EF9E  F000         	goto	i1u106_21
  1820  000138  EFA0  F000         	goto	i1u106_20
  1821  00013C                     i1u106_21:
  1822  00013C  EFA4  F000         	goto	i1l1855
  1823  000140                     i1u106_20:
  1824  000140                     
  1825                           ;pechera.c: 281: {;pechera.c: 282: jugador.Arma.contDisparo = 0;
  1826  000140  0E00               	movlw	0
  1827  000142  6E21               	movwf	(_jugador+22)^0,c
  1828                           
  1829                           ;pechera.c: 283: jugador.Arma.habilDisparo = 1;
  1830  000144  0E01               	movlw	1
  1831  000146  6E23               	movwf	(_jugador+24)^0,c
  1832  000148                     i1l1855:
  1833                           
  1834                           ;pechera.c: 284: };pechera.c: 285: };pechera.c: 286: };pechera.c: 288: debugCont++;
  1835  000148  2A0A               	incf	_debugCont^0,f,c
  1836  00014A                     
  1837                           ;pechera.c: 289: if(debugCont == 50)
  1838  00014A  0E32               	movlw	50
  1839  00014C  180A               	xorwf	_debugCont^0,w,c
  1840  00014E  A4D8               	btfss	status,2,c
  1841  000150  EFAC  F000         	goto	i1u107_21
  1842  000154  EFAE  F000         	goto	i1u107_20
  1843  000158                     i1u107_21:
  1844  000158  EFBD  F000         	goto	i1l1863
  1845  00015C                     i1u107_20:
  1846  00015C                     
  1847                           ;pechera.c: 290: {;pechera.c: 291: debugCont = 0;
  1848  00015C  0E00               	movlw	0
  1849  00015E  6E0A               	movwf	_debugCont^0,c
  1850                           
  1851                           ;pechera.c: 298: debug.CantDatos = 3;
  1852  000160  0E03               	movlw	3
  1853  000162  0100               	movlb	0	; () banked
  1854  000164  6FD8               	movwf	(_debug+51)& (0+255),b
  1855  000166                     
  1856                           ; BSR set to: 0
  1857                           ;pechera.c: 299: EUSARTEnviar2(&TXREG2, &debug);
  1858  000166  0E73               	movlw	115
  1859  000168  6E32               	movwf	i1EUSARTEnviar2@reg^0,c
  1860  00016A  0E0F               	movlw	15
  1861  00016C  6E33               	movwf	(i1EUSARTEnviar2@reg+1)^0,c
  1862  00016E  0EA5               	movlw	low _debug
  1863  000170  6E34               	movwf	i1EUSARTEnviar2@e^0,c
  1864  000172  0E00               	movlw	high _debug
  1865  000174  6E35               	movwf	(i1EUSARTEnviar2@e+1)^0,c
  1866  000176  EC2E  F00D         	call	i1_EUSARTEnviar2	;wreg free
  1867  00017A                     i1l1863:
  1868                           
  1869                           ;pechera.c: 300: };pechera.c: 302: INTCONbits.T0IF = 0;
  1870  00017A  94F2               	bcf	242,2,c	;volatile
  1871  00017C                     i1l1865:
  1872                           
  1873                           ;pechera.c: 303: };pechera.c: 306: if(PIE3bits.TX2IE && PIR3bits.TX2IF)
  1874  00017C  A8A3               	btfss	163,4,c	;volatile
  1875  00017E  EFC3  F000         	goto	i1u108_21
  1876  000182  EFC5  F000         	goto	i1u108_20
  1877  000186                     i1u108_21:
  1878  000186  EFE6  F000         	goto	i1l237
  1879  00018A                     i1u108_20:
  1880  00018A  A8A4               	btfss	164,4,c	;volatile
  1881  00018C  EFCA  F000         	goto	i1u109_21
  1882  000190  EFCC  F000         	goto	i1u109_20
  1883  000194                     i1u109_21:
  1884  000194  EFE6  F000         	goto	i1l237
  1885  000198                     i1u109_20:
  1886  000198                     
  1887                           ;pechera.c: 307: {;pechera.c: 308: if(debug.CantDatos > debug.cont)
  1888  000198  0100               	movlb	0	; () banked
  1889  00019A  51D8               	movf	(_debug+51)& (0+255),w,b
  1890  00019C  5DD7               	subwf	(_debug+50)& (0+255),w,b
  1891  00019E  B0D8               	btfsc	status,0,c
  1892  0001A0  EFD4  F000         	goto	i1u110_21
  1893  0001A4  EFD6  F000         	goto	i1u110_20
  1894  0001A8                     i1u110_21:
  1895  0001A8  EFE1  F000         	goto	i1l1875
  1896  0001AC                     i1u110_20:
  1897  0001AC                     
  1898                           ; BSR set to: 0
  1899                           ;pechera.c: 309: {;pechera.c: 310: TXREG2 = debug.Datos[debug.cont];
  1900  0001AC  0EA5               	movlw	low _debug
  1901  0001AE  25D7               	addwf	(_debug+50)& (0+255),w,b
  1902  0001B0  6ED9               	movwf	fsr2l,c
  1903  0001B2  6ADA               	clrf	fsr2h,c
  1904  0001B4  0E00               	movlw	high _debug
  1905  0001B6  22DA               	addwfc	fsr2h,f,c
  1906  0001B8  50DF               	movf	indf2,w,c
  1907  0001BA  6E73               	movwf	115,c	;volatile
  1908  0001BC                     
  1909                           ; BSR set to: 0
  1910                           ;pechera.c: 311: debug.cont++;
  1911  0001BC  2BD7               	incf	(_debug+50)& (0+255),f,b
  1912                           
  1913                           ;pechera.c: 312: }
  1914  0001BE  EFE6  F000         	goto	i1l237
  1915  0001C2                     i1l1875:
  1916                           
  1917                           ; BSR set to: 0
  1918                           ;pechera.c: 313: else;pechera.c: 314: {;pechera.c: 315: debug.cont = 0;
  1919  0001C2  0E00               	movlw	0
  1920  0001C4  6FD7               	movwf	(_debug+50)& (0+255),b
  1921                           
  1922                           ;pechera.c: 316: debug.Transmitiendo = 0;
  1923  0001C6  0E00               	movlw	0
  1924  0001C8  6FD9               	movwf	(_debug+52)& (0+255),b
  1925  0001CA                     
  1926                           ; BSR set to: 0
  1927                           ;pechera.c: 317: PIE3bits.TX2IE = 0;
  1928  0001CA  98A3               	bcf	163,4,c	;volatile
  1929  0001CC                     i1l237:
  1930  0001CC  C03E  FFDA         	movff	??_IRS_Low+6,fsr2h
  1931  0001D0  C03D  FFD9         	movff	??_IRS_Low+5,fsr2l
  1932  0001D4  C03C  FFE2         	movff	??_IRS_Low+4,fsr1h
  1933  0001D8  C03B  FFE1         	movff	??_IRS_Low+3,fsr1l
  1934  0001DC  C03A  FFE0         	movff	??_IRS_Low+2,bsr
  1935  0001E0  C039  FFE8         	movff	??_IRS_Low+1,wreg
  1936  0001E4  C038  FFD8         	movff	??_IRS_Low,status
  1937  0001E8  904C               	bcf	int$flags,0,c	;clear compiler interrupt flag (level 1)
  1938  0001EA  0010               	retfie	
  1939  0001EC                     __end_of_IRS_Low:
  1940                           	opt callstack 0
  1941                           
  1942 ;; *************** function i1_EUSARTEnviar2 *****************
  1943 ;; Defined at:
  1944 ;;		line 35 in file "EUSART.c"
  1945 ;; Parameters:    Size  Location     Type
  1946 ;;  reg             2    2[COMRAM] PTR unsigned char 
  1947 ;;		 -> TXREG2(1), 
  1948 ;;  e               2    4[COMRAM] PTR struct eusart
  1949 ;;		 -> debug(53), 
  1950 ;; Auto vars:     Size  Location     Type
  1951 ;;		None
  1952 ;; Return value:  Size  Location     Type
  1953 ;;                  1    wreg      void 
  1954 ;; Registers used:
  1955 ;;		wreg, fsr1l, fsr1h, fsr2l, fsr2h, status,2, status,0
  1956 ;; Tracked objects:
  1957 ;;		On entry : 0/0
  1958 ;;		On exit  : 0/0
  1959 ;;		Unchanged: 0/0
  1960 ;; Data sizes:     COMRAM   BANK0   BANK1   BANK2   BANK3   BANK4   BANK5   BANK6   BANK7   BANK8   BANK9  BANK10  BANK1
      +1  BANK12  BANK13  BANK14  BANK15
  1961 ;;      Params:         4       0       0       0       0       0       0       0       0       0       0       0       
      +0       0       0       0       0
  1962 ;;      Locals:         0       0       0       0       0       0       0       0       0       0       0       0       
      +0       0       0       0       0
  1963 ;;      Temps:          0       0       0       0       0       0       0       0       0       0       0       0       
      +0       0       0       0       0
  1964 ;;      Totals:         4       0       0       0       0       0       0       0       0       0       0       0       
      +0       0       0       0       0
  1965 ;;Total ram usage:        4 bytes
  1966 ;; Hardware stack levels used:    1
  1967 ;; Hardware stack levels required when called:    1
  1968 ;; This function calls:
  1969 ;;		Nothing
  1970 ;; This function is called by:
  1971 ;;		_IRS_Low
  1972 ;; This function uses a non-reentrant model
  1973 ;;
  1974                           
  1975                           	psect	text6
  1976  001A5C                     __ptext6:
  1977                           	opt callstack 0
  1978  001A5C                     i1_EUSARTEnviar2:
  1979                           	opt callstack 27
  1980  001A5C                     
  1981                           ;EUSART.c: 37: e->Transmitiendo = 1;
  1982  001A5C  EE20 F034          	lfsr	2,52
  1983  001A60  5034               	movf	i1EUSARTEnviar2@e^0,w,c
  1984  001A62  26D9               	addwf	fsr2l,f,c
  1985  001A64  5035               	movf	(i1EUSARTEnviar2@e+1)^0,w,c
  1986  001A66  22DA               	addwfc	fsr2h,f,c
  1987  001A68  0E01               	movlw	1
  1988  001A6A  6EDF               	movwf	indf2,c
  1989                           
  1990                           ;EUSART.c: 38: e->cont = 1;
  1991  001A6C  EE20 F032          	lfsr	2,50
  1992  001A70  5034               	movf	i1EUSARTEnviar2@e^0,w,c
  1993  001A72  26D9               	addwf	fsr2l,f,c
  1994  001A74  5035               	movf	(i1EUSARTEnviar2@e+1)^0,w,c
  1995  001A76  22DA               	addwfc	fsr2h,f,c
  1996  001A78  0E01               	movlw	1
  1997  001A7A  6EDF               	movwf	indf2,c
  1998  001A7C                     
  1999                           ;EUSART.c: 39: *reg = e->Datos[0];
  2000  001A7C  C034  FFD9         	movff	i1EUSARTEnviar2@e,fsr2l
  2001  001A80  C035  FFDA         	movff	i1EUSARTEnviar2@e+1,fsr2h
  2002  001A84  C032  FFE1         	movff	i1EUSARTEnviar2@reg,fsr1l
  2003  001A88  C033  FFE2         	movff	i1EUSARTEnviar2@reg+1,fsr1h
  2004  001A8C  CFDF FFE7          	movff	indf2,indf1
  2005  001A90                     
  2006                           ;EUSART.c: 40: PIE3bits.TX2IE = 1;
  2007  001A90  88A3               	bsf	163,4,c	;volatile
  2008  001A92  0012               	return		;funcret
  2009  001A94                     __end_ofi1_EUSARTEnviar2:
  2010                           	opt callstack 0
  2011                           
  2012 ;; *************** function _Capture *****************
  2013 ;; Defined at:
  2014 ;;		line 9 in file "LReception.c"
  2015 ;; Parameters:    Size  Location     Type
  2016 ;;  reception       2    2[COMRAM] PTR struct reception
  2017 ;;		 -> receptores(69), 
  2018 ;; Auto vars:     Size  Location     Type
  2019 ;;		None
  2020 ;; Return value:  Size  Location     Type
  2021 ;;                  1    wreg      void 
  2022 ;; Registers used:
  2023 ;;		wreg, fsr1l, fsr1h, fsr2l, fsr2h, status,2, status,0
  2024 ;; Tracked objects:
  2025 ;;		On entry : 0/0
  2026 ;;		On exit  : 0/0
  2027 ;;		Unchanged: 0/0
  2028 ;; Data sizes:     COMRAM   BANK0   BANK1   BANK2   BANK3   BANK4   BANK5   BANK6   BANK7   BANK8   BANK9  BANK10  BANK1
      +1  BANK12  BANK13  BANK14  BANK15
  2029 ;;      Params:         2       0       0       0       0       0       0       0       0       0       0       0       
      +0       0       0       0       0
  2030 ;;      Locals:         0       0       0       0       0       0       0       0       0       0       0       0       
      +0       0       0       0       0
  2031 ;;      Temps:          4       0       0       0       0       0       0       0       0       0       0       0       
      +0       0       0       0       0
  2032 ;;      Totals:         6       0       0       0       0       0       0       0       0       0       0       0       
      +0       0       0       0       0
  2033 ;;Total ram usage:        6 bytes
  2034 ;; Hardware stack levels used:    1
  2035 ;; Hardware stack levels required when called:    1
  2036 ;; This function calls:
  2037 ;;		Nothing
  2038 ;; This function is called by:
  2039 ;;		_IRS_Low
  2040 ;; This function uses a non-reentrant model
  2041 ;;
  2042                           
  2043                           	psect	text7
  2044  001004                     __ptext7:
  2045                           	opt callstack 0
  2046  001004                     _Capture:
  2047                           	opt callstack 27
  2048  001004                     
  2049                           ;LReception.c: 11: if(reception->esperandoInicioRL)
  2050  001004  EE20 F002          	lfsr	2,2
  2051  001008  5032               	movf	Capture@reception^0,w,c
  2052  00100A  26D9               	addwf	fsr2l,f,c
  2053  00100C  5033               	movf	(Capture@reception+1)^0,w,c
  2054  00100E  22DA               	addwfc	fsr2h,f,c
  2055  001010  50DF               	movf	indf2,w,c
  2056  001012  B4D8               	btfsc	status,2,c
  2057  001014  EF0E  F008         	goto	i1u62_21
  2058  001018  EF10  F008         	goto	i1u62_20
  2059  00101C                     i1u62_21:
  2060  00101C  EF38  F008         	goto	i1l1629
  2061  001020                     i1u62_20:
  2062  001020                     
  2063                           ;LReception.c: 12: {;LReception.c: 13: if((reception->capturado._16 >= 2650) && (recepti
      +                          on->capturado._16 <= 2750))
  2064  001020  C032  FFD9         	movff	Capture@reception,fsr2l
  2065  001024  C033  FFDA         	movff	Capture@reception+1,fsr2h
  2066  001028  0E5A               	movlw	90
  2067  00102A  5CDE               	subwf	postinc2,w,c
  2068  00102C  0E0A               	movlw	10
  2069  00102E  58DE               	subwfb	postinc2,w,c
  2070  001030  A0D8               	btfss	status,0,c
  2071  001032  EF1D  F008         	goto	i1u63_21
  2072  001036  EF1F  F008         	goto	i1u63_20
  2073  00103A                     i1u63_21:
  2074  00103A  EF64  F009         	goto	i1l276
  2075  00103E                     i1u63_20:
  2076  00103E  C032  FFD9         	movff	Capture@reception,fsr2l
  2077  001042  C033  FFDA         	movff	Capture@reception+1,fsr2h
  2078  001046  0EBF               	movlw	191
  2079  001048  5CDE               	subwf	postinc2,w,c
  2080  00104A  0E0A               	movlw	10
  2081  00104C  58DE               	subwfb	postinc2,w,c
  2082  00104E  B0D8               	btfsc	status,0,c
  2083  001050  EF2C  F008         	goto	i1u64_21
  2084  001054  EF2E  F008         	goto	i1u64_20
  2085  001058                     i1u64_21:
  2086  001058  EF64  F009         	goto	i1l276
  2087  00105C                     i1u64_20:
  2088  00105C                     
  2089                           ;LReception.c: 14: {;LReception.c: 15: reception->esperandoInicioRL = 0;
  2090  00105C  EE20 F002          	lfsr	2,2
  2091  001060  5032               	movf	Capture@reception^0,w,c
  2092  001062  26D9               	addwf	fsr2l,f,c
  2093  001064  5033               	movf	(Capture@reception+1)^0,w,c
  2094  001066  22DA               	addwfc	fsr2h,f,c
  2095  001068  0E00               	movlw	0
  2096  00106A  6EDF               	movwf	indf2,c
  2097  00106C  EF64  F009         	goto	i1l276
  2098  001070                     i1l1629:
  2099                           
  2100                           ;LReception.c: 18: else;LReception.c: 19: {;LReception.c: 20: if((reception->capturado._
      +                          16 >= 2650) && (reception->capturado._16 <= 2750))
  2101  001070  C032  FFD9         	movff	Capture@reception,fsr2l
  2102  001074  C033  FFDA         	movff	Capture@reception+1,fsr2h
  2103  001078  0E5A               	movlw	90
  2104  00107A  5CDE               	subwf	postinc2,w,c
  2105  00107C  0E0A               	movlw	10
  2106  00107E  58DE               	subwfb	postinc2,w,c
  2107  001080  A0D8               	btfss	status,0,c
  2108  001082  EF45  F008         	goto	i1u65_21
  2109  001086  EF47  F008         	goto	i1u65_20
  2110  00108A                     i1u65_21:
  2111  00108A  EF7F  F008         	goto	i1l1639
  2112  00108E                     i1u65_20:
  2113  00108E  C032  FFD9         	movff	Capture@reception,fsr2l
  2114  001092  C033  FFDA         	movff	Capture@reception+1,fsr2h
  2115  001096  0EBF               	movlw	191
  2116  001098  5CDE               	subwf	postinc2,w,c
  2117  00109A  0E0A               	movlw	10
  2118  00109C  58DE               	subwfb	postinc2,w,c
  2119  00109E  B0D8               	btfsc	status,0,c
  2120  0010A0  EF54  F008         	goto	i1u66_21
  2121  0010A4  EF56  F008         	goto	i1u66_20
  2122  0010A8                     i1u66_21:
  2123  0010A8  EF7F  F008         	goto	i1l1639
  2124  0010AC                     i1u66_20:
  2125  0010AC                     
  2126                           ;LReception.c: 21: {;LReception.c: 22: reception->DatoLaser = reception->DatoLaser >> 1;
  2127  0010AC  EE20 F003          	lfsr	2,3
  2128  0010B0  5032               	movf	Capture@reception^0,w,c
  2129  0010B2  26D9               	addwf	fsr2l,f,c
  2130  0010B4  5033               	movf	(Capture@reception+1)^0,w,c
  2131  0010B6  22DA               	addwfc	fsr2h,f,c
  2132  0010B8  EE10 F003          	lfsr	1,3
  2133  0010BC  5032               	movf	Capture@reception^0,w,c
  2134  0010BE  26E1               	addwf	fsr1l,f,c
  2135  0010C0  5033               	movf	(Capture@reception+1)^0,w,c
  2136  0010C2  22E2               	addwfc	fsr1h,f,c
  2137  0010C4  50E7               	movf	indf1,w,c
  2138  0010C6  6E34               	movwf	??_Capture^0,c
  2139  0010C8  90D8               	bcf	status,0,c
  2140  0010CA  3034               	rrcf	??_Capture^0,w,c
  2141  0010CC  6EDF               	movwf	indf2,c
  2142  0010CE                     
  2143                           ;LReception.c: 23: reception->nBitR++;
  2144  0010CE  EE20 F015          	lfsr	2,21
  2145  0010D2  5032               	movf	Capture@reception^0,w,c
  2146  0010D4  26D9               	addwf	fsr2l,f,c
  2147  0010D6  5033               	movf	(Capture@reception+1)^0,w,c
  2148  0010D8  22DA               	addwfc	fsr2h,f,c
  2149  0010DA  2ADF               	incf	indf2,f,c
  2150  0010DC                     
  2151                           ;LReception.c: 24: reception->DatoLaser = reception->DatoLaser | 128;
  2152  0010DC  EE20 F003          	lfsr	2,3
  2153  0010E0  5032               	movf	Capture@reception^0,w,c
  2154  0010E2  26D9               	addwf	fsr2l,f,c
  2155  0010E4  5033               	movf	(Capture@reception+1)^0,w,c
  2156  0010E6  22DA               	addwfc	fsr2h,f,c
  2157  0010E8  EE10 F003          	lfsr	1,3
  2158  0010EC  5032               	movf	Capture@reception^0,w,c
  2159  0010EE  26E1               	addwf	fsr1l,f,c
  2160  0010F0  5033               	movf	(Capture@reception+1)^0,w,c
  2161  0010F2  22E2               	addwfc	fsr1h,f,c
  2162  0010F4  50E7               	movf	indf1,w,c
  2163  0010F6  0980               	iorlw	128
  2164  0010F8  6EDF               	movwf	indf2,c
  2165                           
  2166                           ;LReception.c: 25: }
  2167  0010FA  EFC7  F008         	goto	i1l269
  2168  0010FE                     i1l1639:
  2169                           
  2170                           ;LReception.c: 26: else if((reception->capturado._16 >= 2220) && (reception->capturado._
      +                          16 <= 2320))
  2171  0010FE  C032  FFD9         	movff	Capture@reception,fsr2l
  2172  001102  C033  FFDA         	movff	Capture@reception+1,fsr2h
  2173  001106  0EAC               	movlw	172
  2174  001108  5CDE               	subwf	postinc2,w,c
  2175  00110A  0E08               	movlw	8
  2176  00110C  58DE               	subwfb	postinc2,w,c
  2177  00110E  A0D8               	btfss	status,0,c
  2178  001110  EF8C  F008         	goto	i1u67_21
  2179  001114  EF8E  F008         	goto	i1u67_20
  2180  001118                     i1u67_21:
  2181  001118  EFB7  F008         	goto	i1l1647
  2182  00111C                     i1u67_20:
  2183  00111C  C032  FFD9         	movff	Capture@reception,fsr2l
  2184  001120  C033  FFDA         	movff	Capture@reception+1,fsr2h
  2185  001124  0E11               	movlw	17
  2186  001126  5CDE               	subwf	postinc2,w,c
  2187  001128  0E09               	movlw	9
  2188  00112A  58DE               	subwfb	postinc2,w,c
  2189  00112C  B0D8               	btfsc	status,0,c
  2190  00112E  EF9B  F008         	goto	i1u68_21
  2191  001132  EF9D  F008         	goto	i1u68_20
  2192  001136                     i1u68_21:
  2193  001136  EFB7  F008         	goto	i1l1647
  2194  00113A                     i1u68_20:
  2195  00113A                     
  2196                           ;LReception.c: 27: {;LReception.c: 28: reception->DatoLaser = reception->DatoLaser >> 1;
  2197  00113A  EE20 F003          	lfsr	2,3
  2198  00113E  5032               	movf	Capture@reception^0,w,c
  2199  001140  26D9               	addwf	fsr2l,f,c
  2200  001142  5033               	movf	(Capture@reception+1)^0,w,c
  2201  001144  22DA               	addwfc	fsr2h,f,c
  2202  001146  EE10 F003          	lfsr	1,3
  2203  00114A  5032               	movf	Capture@reception^0,w,c
  2204  00114C  26E1               	addwf	fsr1l,f,c
  2205  00114E  5033               	movf	(Capture@reception+1)^0,w,c
  2206  001150  22E2               	addwfc	fsr1h,f,c
  2207  001152  50E7               	movf	indf1,w,c
  2208  001154  6E34               	movwf	??_Capture^0,c
  2209  001156  90D8               	bcf	status,0,c
  2210  001158  3034               	rrcf	??_Capture^0,w,c
  2211  00115A  6EDF               	movwf	indf2,c
  2212  00115C                     
  2213                           ;LReception.c: 29: reception->nBitR++;
  2214  00115C  EE20 F015          	lfsr	2,21
  2215  001160  5032               	movf	Capture@reception^0,w,c
  2216  001162  26D9               	addwf	fsr2l,f,c
  2217  001164  5033               	movf	(Capture@reception+1)^0,w,c
  2218  001166  22DA               	addwfc	fsr2h,f,c
  2219  001168  2ADF               	incf	indf2,f,c
  2220                           
  2221                           ;LReception.c: 30: }
  2222  00116A  EFC7  F008         	goto	i1l269
  2223  00116E                     i1l1647:
  2224                           
  2225                           ;LReception.c: 31: else;LReception.c: 32: {;LReception.c: 33: reception->esperandoInicio
      +                          RL = 1;
  2226  00116E  EE20 F002          	lfsr	2,2
  2227  001172  5032               	movf	Capture@reception^0,w,c
  2228  001174  26D9               	addwf	fsr2l,f,c
  2229  001176  5033               	movf	(Capture@reception+1)^0,w,c
  2230  001178  22DA               	addwfc	fsr2h,f,c
  2231  00117A  0E01               	movlw	1
  2232  00117C  6EDF               	movwf	indf2,c
  2233                           
  2234                           ;LReception.c: 34: reception->nBitR = 0;
  2235  00117E  EE20 F015          	lfsr	2,21
  2236  001182  5032               	movf	Capture@reception^0,w,c
  2237  001184  26D9               	addwf	fsr2l,f,c
  2238  001186  5033               	movf	(Capture@reception+1)^0,w,c
  2239  001188  22DA               	addwfc	fsr2h,f,c
  2240  00118A  0E00               	movlw	0
  2241  00118C  6EDF               	movwf	indf2,c
  2242  00118E                     i1l269:
  2243                           
  2244                           ;LReception.c: 35: };LReception.c: 37: if(reception->nBitR == 8)
  2245  00118E  EE20 F015          	lfsr	2,21
  2246  001192  5032               	movf	Capture@reception^0,w,c
  2247  001194  26D9               	addwf	fsr2l,f,c
  2248  001196  5033               	movf	(Capture@reception+1)^0,w,c
  2249  001198  22DA               	addwfc	fsr2h,f,c
  2250  00119A  0E08               	movlw	8
  2251  00119C  18DE               	xorwf	postinc2,w,c
  2252  00119E  A4D8               	btfss	status,2,c
  2253  0011A0  EFD4  F008         	goto	i1u69_21
  2254  0011A4  EFD6  F008         	goto	i1u69_20
  2255  0011A8                     i1u69_21:
  2256  0011A8  EF64  F009         	goto	i1l276
  2257  0011AC                     i1u69_20:
  2258  0011AC                     
  2259                           ;LReception.c: 38: {;LReception.c: 39: reception->nBitR = 0;
  2260  0011AC  EE20 F015          	lfsr	2,21
  2261  0011B0  5032               	movf	Capture@reception^0,w,c
  2262  0011B2  26D9               	addwf	fsr2l,f,c
  2263  0011B4  5033               	movf	(Capture@reception+1)^0,w,c
  2264  0011B6  22DA               	addwfc	fsr2h,f,c
  2265  0011B8  0E00               	movlw	0
  2266  0011BA  6EDF               	movwf	indf2,c
  2267                           
  2268                           ;LReception.c: 40: if(reception->contDatosRecL == 0)
  2269  0011BC  EE20 F013          	lfsr	2,19
  2270  0011C0  5032               	movf	Capture@reception^0,w,c
  2271  0011C2  26D9               	addwf	fsr2l,f,c
  2272  0011C4  5033               	movf	(Capture@reception+1)^0,w,c
  2273  0011C6  22DA               	addwfc	fsr2h,f,c
  2274  0011C8  50DF               	movf	indf2,w,c
  2275  0011CA  A4D8               	btfss	status,2,c
  2276  0011CC  EFEA  F008         	goto	i1u70_21
  2277  0011D0  EFEC  F008         	goto	i1u70_20
  2278  0011D4                     i1u70_21:
  2279  0011D4  EFFC  F008         	goto	i1l1653
  2280  0011D8                     i1u70_20:
  2281  0011D8                     
  2282                           ;LReception.c: 41: {;LReception.c: 42: reception->cantDatosRecL = reception->DatoLaser;
  2283  0011D8  EE20 F003          	lfsr	2,3
  2284  0011DC  5032               	movf	Capture@reception^0,w,c
  2285  0011DE  26D9               	addwf	fsr2l,f,c
  2286  0011E0  5033               	movf	(Capture@reception+1)^0,w,c
  2287  0011E2  22DA               	addwfc	fsr2h,f,c
  2288  0011E4  EE10 F014          	lfsr	1,20
  2289  0011E8  5032               	movf	Capture@reception^0,w,c
  2290  0011EA  26E1               	addwf	fsr1l,f,c
  2291  0011EC  5033               	movf	(Capture@reception+1)^0,w,c
  2292  0011EE  22E2               	addwfc	fsr1h,f,c
  2293  0011F0  CFDF FFE7          	movff	indf2,indf1
  2294                           
  2295                           ;LReception.c: 43: }
  2296  0011F4  EF5D  F009         	goto	i1l274
  2297  0011F8                     i1l1653:
  2298                           
  2299                           ;LReception.c: 44: else;LReception.c: 45: {;LReception.c: 46: reception->DatosRecibidosL
      +                          [reception->contDatosRecL - 1] = reception->DatoLaser;
  2300  0011F8  EE20 F003          	lfsr	2,3
  2301  0011FC  5032               	movf	Capture@reception^0,w,c
  2302  0011FE  26D9               	addwf	fsr2l,f,c
  2303  001200  5033               	movf	(Capture@reception+1)^0,w,c
  2304  001202  22DA               	addwfc	fsr2h,f,c
  2305  001204  EE10 F013          	lfsr	1,19
  2306  001208  5032               	movf	Capture@reception^0,w,c
  2307  00120A  26E1               	addwf	fsr1l,f,c
  2308  00120C  5033               	movf	(Capture@reception+1)^0,w,c
  2309  00120E  22E2               	addwfc	fsr1h,f,c
  2310  001210  50E7               	movf	indf1,w,c
  2311  001212  6E34               	movwf	??_Capture^0,c
  2312  001214  6A35               	clrf	(??_Capture+1)^0,c
  2313  001216  BE34               	btfsc	??_Capture^0,7,c
  2314  001218  0635               	decf	(??_Capture+1)^0,f,c
  2315  00121A  C032  F036         	movff	Capture@reception,??_Capture+2
  2316  00121E  C033  F037         	movff	Capture@reception+1,??_Capture+3
  2317  001222  5034               	movf	??_Capture^0,w,c
  2318  001224  2636               	addwf	(??_Capture+2)^0,f,c
  2319  001226  5035               	movf	(??_Capture+1)^0,w,c
  2320  001228  2237               	addwfc	(??_Capture+3)^0,f,c
  2321  00122A  0E03               	movlw	3
  2322  00122C  2436               	addwf	(??_Capture+2)^0,w,c
  2323  00122E  6EE1               	movwf	fsr1l,c
  2324  001230  0E00               	movlw	0
  2325  001232  2037               	addwfc	(??_Capture+3)^0,w,c
  2326  001234  6EE2               	movwf	fsr1h,c
  2327  001236  CFDF FFE7          	movff	indf2,indf1
  2328  00123A                     
  2329                           ;LReception.c: 48: if(reception->cantDatosRecL == reception->contDatosRecL)
  2330  00123A  EE20 F013          	lfsr	2,19
  2331  00123E  5032               	movf	Capture@reception^0,w,c
  2332  001240  26D9               	addwf	fsr2l,f,c
  2333  001242  5033               	movf	(Capture@reception+1)^0,w,c
  2334  001244  22DA               	addwfc	fsr2h,f,c
  2335  001246  50DF               	movf	indf2,w,c
  2336  001248  6E34               	movwf	??_Capture^0,c
  2337  00124A  6A35               	clrf	(??_Capture+1)^0,c
  2338  00124C  BE34               	btfsc	??_Capture^0,7,c
  2339  00124E  0635               	decf	(??_Capture+1)^0,f,c
  2340  001250  EE20 F014          	lfsr	2,20
  2341  001254  5032               	movf	Capture@reception^0,w,c
  2342  001256  26D9               	addwf	fsr2l,f,c
  2343  001258  5033               	movf	(Capture@reception+1)^0,w,c
  2344  00125A  22DA               	addwfc	fsr2h,f,c
  2345  00125C  50DF               	movf	indf2,w,c
  2346  00125E  6E36               	movwf	(??_Capture+2)^0,c
  2347  001260  6A37               	clrf	(??_Capture+3)^0,c
  2348  001262  5034               	movf	??_Capture^0,w,c
  2349  001264  1836               	xorwf	(??_Capture+2)^0,w,c
  2350  001266  E107               	bnz	i1u71_21
  2351  001268  5035               	movf	(??_Capture+1)^0,w,c
  2352  00126A  1837               	xorwf	(??_Capture+3)^0,w,c
  2353  00126C  A4D8               	btfss	status,2,c
  2354  00126E  EF3B  F009         	goto	i1u71_21
  2355  001272  EF3D  F009         	goto	i1u71_20
  2356  001276                     i1u71_21:
  2357  001276  EF5D  F009         	goto	i1l274
  2358  00127A                     i1u71_20:
  2359  00127A                     
  2360                           ;LReception.c: 49: {;LReception.c: 50: reception->esperandoInicioRL = 1;
  2361  00127A  EE20 F002          	lfsr	2,2
  2362  00127E  5032               	movf	Capture@reception^0,w,c
  2363  001280  26D9               	addwf	fsr2l,f,c
  2364  001282  5033               	movf	(Capture@reception+1)^0,w,c
  2365  001284  22DA               	addwfc	fsr2h,f,c
  2366  001286  0E01               	movlw	1
  2367  001288  6EDF               	movwf	indf2,c
  2368                           
  2369                           ;LReception.c: 51: reception->contDatosRecL = -1;
  2370  00128A  EE20 F013          	lfsr	2,19
  2371  00128E  5032               	movf	Capture@reception^0,w,c
  2372  001290  26D9               	addwf	fsr2l,f,c
  2373  001292  5033               	movf	(Capture@reception+1)^0,w,c
  2374  001294  22DA               	addwfc	fsr2h,f,c
  2375  001296  0EFF               	movlw	255
  2376  001298  6EDF               	movwf	indf2,c
  2377                           
  2378                           ;LReception.c: 52: reception->DatoLaser = 0;
  2379  00129A  EE20 F003          	lfsr	2,3
  2380  00129E  5032               	movf	Capture@reception^0,w,c
  2381  0012A0  26D9               	addwf	fsr2l,f,c
  2382  0012A2  5033               	movf	(Capture@reception+1)^0,w,c
  2383  0012A4  22DA               	addwfc	fsr2h,f,c
  2384  0012A6  0E00               	movlw	0
  2385  0012A8  6EDF               	movwf	indf2,c
  2386                           
  2387                           ;LReception.c: 53: reception->DatosLRecibidoFlag = 1;
  2388  0012AA  EE20 F016          	lfsr	2,22
  2389  0012AE  5032               	movf	Capture@reception^0,w,c
  2390  0012B0  26D9               	addwf	fsr2l,f,c
  2391  0012B2  5033               	movf	(Capture@reception+1)^0,w,c
  2392  0012B4  22DA               	addwfc	fsr2h,f,c
  2393  0012B6  0E01               	movlw	1
  2394  0012B8  6EDF               	movwf	indf2,c
  2395  0012BA                     i1l274:
  2396                           
  2397                           ;LReception.c: 54: };LReception.c: 55: };LReception.c: 57: reception->contDatosRecL++;
  2398  0012BA  EE20 F013          	lfsr	2,19
  2399  0012BE  5032               	movf	Capture@reception^0,w,c
  2400  0012C0  26D9               	addwf	fsr2l,f,c
  2401  0012C2  5033               	movf	(Capture@reception+1)^0,w,c
  2402  0012C4  22DA               	addwfc	fsr2h,f,c
  2403  0012C6  2ADF               	incf	indf2,f,c
  2404  0012C8                     i1l276:
  2405  0012C8  0012               	return		;funcret
  2406  0012CA                     __end_of_Capture:
  2407                           	opt callstack 0
  2408                           
  2409 ;; *************** function _IRS_High *****************
  2410 ;; Defined at:
  2411 ;;		line 110 in file "pechera.c"
  2412 ;; Parameters:    Size  Location     Type
  2413 ;;		None
  2414 ;; Auto vars:     Size  Location     Type
  2415 ;;		None
  2416 ;; Return value:  Size  Location     Type
  2417 ;;                  1    wreg      void 
  2418 ;; Registers used:
  2419 ;;		wreg, fsr2l, fsr2h, status,2, status,0
  2420 ;; Tracked objects:
  2421 ;;		On entry : 0/0
  2422 ;;		On exit  : 0/0
  2423 ;;		Unchanged: 0/0
  2424 ;; Data sizes:     COMRAM   BANK0   BANK1   BANK2   BANK3   BANK4   BANK5   BANK6   BANK7   BANK8   BANK9  BANK10  BANK1
      +1  BANK12  BANK13  BANK14  BANK15
  2425 ;;      Params:         0       0       0       0       0       0       0       0       0       0       0       0       
      +0       0       0       0       0
  2426 ;;      Locals:         0       0       0       0       0       0       0       0       0       0       0       0       
      +0       0       0       0       0
  2427 ;;      Temps:          2       0       0       0       0       0       0       0       0       0       0       0       
      +0       0       0       0       0
  2428 ;;      Totals:         2       0       0       0       0       0       0       0       0       0       0       0       
      +0       0       0       0       0
  2429 ;;Total ram usage:        2 bytes
  2430 ;; Hardware stack levels used:    1
  2431 ;; This function calls:
  2432 ;;		Nothing
  2433 ;; This function is called by:
  2434 ;;		Interrupt level 2
  2435 ;; This function uses a non-reentrant model
  2436 ;;
  2437                           
  2438                           	psect	intcode
  2439  000008                     __pintcode:
  2440                           	opt callstack 0
  2441  000008                     _IRS_High:
  2442                           	opt callstack 27
  2443                           
  2444                           ;incstack = 0
  2445  000008  824C               	bsf	int$flags,1,c	;set compiler interrupt flag (level 2)
  2446  00000A  EF56  F00A         	goto	int_func
  2447                           
  2448                           	psect	intcode_body
  2449  0014AC                     __pintcode_body:
  2450                           	opt callstack 27
  2451  0014AC                     int_func:
  2452                           	opt callstack 27
  2453  0014AC  CFD9 F030          	movff	fsr2l,??_IRS_High
  2454  0014B0  CFDA F031          	movff	fsr2h,??_IRS_High+1
  2455  0014B4                     
  2456                           ;pechera.c: 113: if(INTCONbits.INT0IE && INTCONbits.INT0IF)
  2457  0014B4  A8F2               	btfss	242,4,c	;volatile
  2458  0014B6  EF5F  F00A         	goto	i2u80_41
  2459  0014BA  EF61  F00A         	goto	i2u80_40
  2460  0014BE                     i2u80_41:
  2461  0014BE  EF69  F00A         	goto	i2l200
  2462  0014C2                     i2u80_40:
  2463  0014C2  A2F2               	btfss	242,1,c	;volatile
  2464  0014C4  EF66  F00A         	goto	i2u81_41
  2465  0014C8  EF68  F00A         	goto	i2u81_40
  2466  0014CC                     i2u81_41:
  2467  0014CC  EF69  F00A         	goto	i2l200
  2468  0014D0                     i2u81_40:
  2469  0014D0                     
  2470                           ;pechera.c: 114: {;pechera.c: 117: INTCONbits.INT0IF = 0;
  2471  0014D0  92F2               	bcf	242,1,c	;volatile
  2472  0014D2                     i2l200:
  2473                           
  2474                           ;pechera.c: 118: };pechera.c: 121: if(INTCON3bits.INT2IE && INTCON3bits.INT2IF)
  2475  0014D2  A8F0               	btfss	240,4,c	;volatile
  2476  0014D4  EF6E  F00A         	goto	i2u82_41
  2477  0014D8  EF70  F00A         	goto	i2u82_40
  2478  0014DC                     i2u82_41:
  2479  0014DC  EF7B  F00A         	goto	i2l1727
  2480  0014E0                     i2u82_40:
  2481  0014E0  A2F0               	btfss	240,1,c	;volatile
  2482  0014E2  EF75  F00A         	goto	i2u83_41
  2483  0014E6  EF77  F00A         	goto	i2u83_40
  2484  0014EA                     i2u83_41:
  2485  0014EA  EF7B  F00A         	goto	i2l1727
  2486  0014EE                     i2u83_40:
  2487  0014EE                     
  2488                           ;pechera.c: 122: {;pechera.c: 124: debug.Datos[3]^=1;
  2489  0014EE  0E01               	movlw	1
  2490  0014F0  0100               	movlb	0	; () banked
  2491  0014F2  1BA8               	xorwf	(_debug+3)& (0+255),f,b
  2492  0014F4                     
  2493                           ; BSR set to: 0
  2494                           ;pechera.c: 126: INTCON3bits.INT2IF = 0;
  2495  0014F4  92F0               	bcf	240,1,c	;volatile
  2496  0014F6                     i2l1727:
  2497                           
  2498                           ;pechera.c: 127: };pechera.c: 129: if(PIE5bits.TMR4IE && PIR5bits.TMR4IF)
  2499  0014F6  A07D               	btfss	125,0,c	;volatile
  2500  0014F8  EF80  F00A         	goto	i2u84_41
  2501  0014FC  EF82  F00A         	goto	i2u84_40
  2502  001500                     i2u84_41:
  2503  001500  EF2F  F00B         	goto	i2l221
  2504  001504                     i2u84_40:
  2505  001504  A07E               	btfss	126,0,c	;volatile
  2506  001506  EF87  F00A         	goto	i2u85_41
  2507  00150A  EF89  F00A         	goto	i2u85_40
  2508  00150E                     i2u85_41:
  2509  00150E  EF2F  F00B         	goto	i2l221
  2510  001512                     i2u85_40:
  2511  001512                     
  2512                           ;pechera.c: 130: {;pechera.c: 131: if(primerosBitsEL < 15)
  2513  001512  0E0F               	movlw	15
  2514  001514  6009               	cpfslt	_primerosBitsEL^0,c
  2515  001516  EF8F  F00A         	goto	i2u86_41
  2516  00151A  EF91  F00A         	goto	i2u86_40
  2517  00151E                     i2u86_41:
  2518  00151E  EFAA  F00A         	goto	i2l1743
  2519  001522                     i2u86_40:
  2520  001522                     
  2521                           ;pechera.c: 132: {;pechera.c: 133: if(flancoEL)
  2522  001522  504B               	movf	_flancoEL^0,w,c
  2523  001524  B4D8               	btfsc	status,2,c
  2524  001526  EF97  F00A         	goto	i2u87_41
  2525  00152A  EF99  F00A         	goto	i2u87_40
  2526  00152E                     i2u87_41:
  2527  00152E  EFA1  F00A         	goto	i2l204
  2528  001532                     i2u87_40:
  2529  001532                     
  2530                           ;pechera.c: 134: {;pechera.c: 135: LA2 = 1;
  2531  001532  8489               	bsf	3977,2,c	;volatile
  2532  001534                     
  2533                           ;pechera.c: 137: PR4 = 137;
  2534  001534  0E89               	movlw	137
  2535  001536  010F               	movlb	15	; () banked
  2536  001538  6F52               	movwf	82,b	;volatile
  2537                           
  2538                           ;pechera.c: 139: flancoEL = 0;
  2539  00153A  0E00               	movlw	0
  2540  00153C  6E4B               	movwf	_flancoEL^0,c
  2541                           
  2542                           ;pechera.c: 140: }
  2543  00153E  EF2E  F00B         	goto	i2l1795
  2544  001542                     i2l204:
  2545                           
  2546                           ;pechera.c: 141: else;pechera.c: 142: {;pechera.c: 143: LA2 = 0;
  2547  001542  9489               	bcf	3977,2,c	;volatile
  2548  001544                     
  2549                           ;pechera.c: 144: PR4 = 70;
  2550  001544  0E46               	movlw	70
  2551  001546  010F               	movlb	15	; () banked
  2552  001548  6F52               	movwf	82,b	;volatile
  2553                           
  2554                           ;pechera.c: 145: flancoEL = 1;
  2555  00154A  0E01               	movlw	1
  2556  00154C  6E4B               	movwf	_flancoEL^0,c
  2557  00154E                     i2l1741:
  2558                           
  2559                           ; BSR set to: 15
  2560                           ;pechera.c: 146: primerosBitsEL++;
  2561  00154E  2A09               	incf	_primerosBitsEL^0,f,c
  2562  001550  EF2E  F00B         	goto	i2l1795
  2563  001554                     i2l1743:
  2564                           
  2565                           ;pechera.c: 150: else if(primerosBitsEL == 15)
  2566  001554  0E0F               	movlw	15
  2567  001556  1809               	xorwf	_primerosBitsEL^0,w,c
  2568  001558  A4D8               	btfss	status,2,c
  2569  00155A  EFB1  F00A         	goto	i2u88_41
  2570  00155E  EFB3  F00A         	goto	i2u88_40
  2571  001562                     i2u88_41:
  2572  001562  EFC5  F00A         	goto	i2l1755
  2573  001566                     i2u88_40:
  2574  001566                     
  2575                           ;pechera.c: 151: {;pechera.c: 152: if(flancoEL)
  2576  001566  504B               	movf	_flancoEL^0,w,c
  2577  001568  B4D8               	btfsc	status,2,c
  2578  00156A  EFB9  F00A         	goto	i2u89_41
  2579  00156E  EFBB  F00A         	goto	i2u89_40
  2580  001572                     i2u89_41:
  2581  001572  EFA1  F00A         	goto	i2l204
  2582  001576                     i2u89_40:
  2583  001576                     
  2584                           ;pechera.c: 153: {;pechera.c: 154: LA2 = 1;
  2585  001576  8489               	bsf	3977,2,c	;volatile
  2586  001578                     
  2587                           ;pechera.c: 156: PR4 = 177;
  2588  001578  0EB1               	movlw	177
  2589  00157A  010F               	movlb	15	; () banked
  2590  00157C  6F52               	movwf	82,b	;volatile
  2591                           
  2592                           ;pechera.c: 158: flancoEL = 0;
  2593  00157E  0E00               	movlw	0
  2594  001580  6E4B               	movwf	_flancoEL^0,c
  2595                           
  2596                           ;pechera.c: 159: }
  2597  001582  EF2E  F00B         	goto	i2l1795
  2598  001586                     i2l209:
  2599                           
  2600                           ; BSR set to: 15
  2601                           ;pechera.c: 166: };pechera.c: 167: }
  2602  001586  EF2E  F00B         	goto	i2l1795
  2603  00158A                     i2l1755:
  2604                           
  2605                           ;pechera.c: 168: else if(primerosBitsEL == 16)
  2606  00158A  0E10               	movlw	16
  2607  00158C  1809               	xorwf	_primerosBitsEL^0,w,c
  2608  00158E  A4D8               	btfss	status,2,c
  2609  001590  EFCC  F00A         	goto	i2u90_41
  2610  001594  EFCE  F00A         	goto	i2u90_40
  2611  001598                     i2u90_41:
  2612  001598  EF12  F00B         	goto	i2l1781
  2613  00159C                     i2u90_40:
  2614  00159C                     
  2615                           ;pechera.c: 169: {;pechera.c: 170: if(flancoEL)
  2616  00159C  504B               	movf	_flancoEL^0,w,c
  2617  00159E  B4D8               	btfsc	status,2,c
  2618  0015A0  EFD4  F00A         	goto	i2u91_41
  2619  0015A4  EFD6  F00A         	goto	i2u91_40
  2620  0015A8                     i2u91_41:
  2621  0015A8  EFF3  F00A         	goto	i2l212
  2622  0015AC                     i2u91_40:
  2623  0015AC                     
  2624                           ;pechera.c: 171: {;pechera.c: 172: LA2 = 1;
  2625  0015AC  8489               	bsf	3977,2,c	;volatile
  2626  0015AE                     
  2627                           ;pechera.c: 174: if(DatosEL[contByteEL] & contBitEL)
  2628  0015AE  0E01               	movlw	low _DatosEL
  2629  0015B0  2408               	addwf	_contByteEL^0,w,c
  2630  0015B2  6ED9               	movwf	fsr2l,c
  2631  0015B4  6ADA               	clrf	fsr2h,c
  2632  0015B6  0E00               	movlw	high _DatosEL
  2633  0015B8  22DA               	addwfc	fsr2h,f,c
  2634  0015BA  50DF               	movf	indf2,w,c
  2635  0015BC  144A               	andwf	_contBitEL^0,w,c
  2636  0015BE  0900               	iorlw	0
  2637  0015C0  B4D8               	btfsc	status,2,c
  2638  0015C2  EFE5  F00A         	goto	i2u92_41
  2639  0015C6  EFE7  F00A         	goto	i2u92_40
  2640  0015CA                     i2u92_41:
  2641  0015CA  EFEC  F00A         	goto	i2l1765
  2642  0015CE                     i2u92_40:
  2643  0015CE                     
  2644                           ;pechera.c: 175: PR4 = 177;
  2645  0015CE  0EB1               	movlw	177
  2646  0015D0  010F               	movlb	15	; () banked
  2647  0015D2  6F52               	movwf	82,b	;volatile
  2648  0015D4  EFEF  F00A         	goto	i2l214
  2649  0015D8                     i2l1765:
  2650                           
  2651                           ;pechera.c: 176: else;pechera.c: 177: PR4 = 137;
  2652  0015D8  0E89               	movlw	137
  2653  0015DA  010F               	movlb	15	; () banked
  2654  0015DC  6F52               	movwf	82,b	;volatile
  2655  0015DE                     i2l214:
  2656                           
  2657                           ; BSR set to: 15
  2658                           ;pechera.c: 179: flancoEL = 0;
  2659  0015DE  0E00               	movlw	0
  2660  0015E0  6E4B               	movwf	_flancoEL^0,c
  2661                           
  2662                           ;pechera.c: 180: }
  2663  0015E2  EF2E  F00B         	goto	i2l1795
  2664  0015E6                     i2l212:
  2665                           
  2666                           ;pechera.c: 181: else;pechera.c: 182: {;pechera.c: 183: LA2 = 0;
  2667  0015E6  9489               	bcf	3977,2,c	;volatile
  2668  0015E8                     
  2669                           ;pechera.c: 184: PR4 = 70;
  2670  0015E8  0E46               	movlw	70
  2671  0015EA  010F               	movlb	15	; () banked
  2672  0015EC  6F52               	movwf	82,b	;volatile
  2673                           
  2674                           ;pechera.c: 185: flancoEL = 1;
  2675  0015EE  0E01               	movlw	1
  2676  0015F0  6E4B               	movwf	_flancoEL^0,c
  2677  0015F2                     
  2678                           ; BSR set to: 15
  2679                           ;pechera.c: 186: contBitEL = contBitEL << 1;
  2680  0015F2  504A               	movf	_contBitEL^0,w,c
  2681  0015F4  244A               	addwf	_contBitEL^0,w,c
  2682  0015F6  6E4A               	movwf	_contBitEL^0,c
  2683  0015F8                     
  2684                           ; BSR set to: 15
  2685                           ;pechera.c: 188: if(contBitEL == 0)
  2686  0015F8  504A               	movf	_contBitEL^0,w,c
  2687  0015FA  A4D8               	btfss	status,2,c
  2688  0015FC  EF02  F00B         	goto	i2u93_41
  2689  001600  EF04  F00B         	goto	i2u93_40
  2690  001604                     i2u93_41:
  2691  001604  EF2E  F00B         	goto	i2l1795
  2692  001608                     i2u93_40:
  2693  001608                     
  2694                           ; BSR set to: 15
  2695                           ;pechera.c: 189: {;pechera.c: 190: contBitEL = 1;
  2696  001608  0E01               	movlw	1
  2697  00160A  6E4A               	movwf	_contBitEL^0,c
  2698  00160C                     
  2699                           ; BSR set to: 15
  2700                           ;pechera.c: 191: contByteEL++;
  2701  00160C  2A08               	incf	_contByteEL^0,f,c
  2702  00160E                     
  2703                           ; BSR set to: 15
  2704                           ;pechera.c: 193: if(contByteEL == cantBytesEL)
  2705  00160E  5007               	movf	_cantBytesEL^0,w,c
  2706  001610  1808               	xorwf	_contByteEL^0,w,c
  2707  001612  A4D8               	btfss	status,2,c
  2708  001614  EF0E  F00B         	goto	i2u94_41
  2709  001618  EF10  F00B         	goto	i2u94_40
  2710  00161C                     i2u94_41:
  2711  00161C  EFC3  F00A         	goto	i2l209
  2712  001620                     i2u94_40:
  2713  001620  EFA7  F00A         	goto	i2l1741
  2714  001624                     i2l1781:
  2715                           
  2716                           ;pechera.c: 200: else;pechera.c: 201: {;pechera.c: 202: if(flancoEL)
  2717  001624  504B               	movf	_flancoEL^0,w,c
  2718  001626  B4D8               	btfsc	status,2,c
  2719  001628  EF18  F00B         	goto	i2u95_41
  2720  00162C  EF1A  F00B         	goto	i2u95_40
  2721  001630                     i2u95_41:
  2722  001630  EF22  F00B         	goto	i2l1787
  2723  001634                     i2u95_40:
  2724  001634                     
  2725                           ;pechera.c: 203: {;pechera.c: 204: LA2 = 1;
  2726  001634  8489               	bsf	3977,2,c	;volatile
  2727  001636                     
  2728                           ;pechera.c: 205: flancoEL = 0;
  2729  001636  0E00               	movlw	0
  2730  001638  6E4B               	movwf	_flancoEL^0,c
  2731                           
  2732                           ;pechera.c: 206: PR4 = 50;
  2733  00163A  0E32               	movlw	50
  2734  00163C  010F               	movlb	15	; () banked
  2735  00163E  6F52               	movwf	82,b	;volatile
  2736                           
  2737                           ;pechera.c: 207: }
  2738  001640  EF2E  F00B         	goto	i2l1795
  2739  001644                     i2l1787:
  2740                           
  2741                           ;pechera.c: 208: else;pechera.c: 209: {;pechera.c: 210: primerosBitsEL = 0;
  2742  001644  0E00               	movlw	0
  2743  001646  6E09               	movwf	_primerosBitsEL^0,c
  2744                           
  2745                           ;pechera.c: 211: flancoEL = 1;
  2746  001648  0E01               	movlw	1
  2747  00164A  6E4B               	movwf	_flancoEL^0,c
  2748                           
  2749                           ;pechera.c: 212: contBitEL = 1;
  2750  00164C  0E01               	movlw	1
  2751  00164E  6E4A               	movwf	_contBitEL^0,c
  2752                           
  2753                           ;pechera.c: 213: contByteEL = 0;
  2754  001650  0E00               	movlw	0
  2755  001652  6E08               	movwf	_contByteEL^0,c
  2756  001654                     
  2757                           ;pechera.c: 214: T4CONbits.TMR4ON = 0;
  2758  001654  010F               	movlb	15	; () banked
  2759  001656  9551               	bcf	81,2,b	;volatile
  2760  001658                     
  2761                           ; BSR set to: 15
  2762                           ;pechera.c: 215: PIE5bits.TMR4IE = 0;
  2763  001658  907D               	bcf	125,0,c	;volatile
  2764  00165A                     
  2765                           ; BSR set to: 15
  2766                           ;pechera.c: 216: LA2 = 0;
  2767  00165A  9489               	bcf	3977,2,c	;volatile
  2768  00165C                     i2l1795:
  2769                           
  2770                           ; BSR set to: 15
  2771                           ;pechera.c: 217: };pechera.c: 218: };pechera.c: 220: PIR5bits.TMR4IF = 0;
  2772  00165C  907E               	bcf	126,0,c	;volatile
  2773  00165E                     i2l221:
  2774  00165E  C031  FFDA         	movff	??_IRS_High+1,fsr2h
  2775  001662  C030  FFD9         	movff	??_IRS_High,fsr2l
  2776  001666  924C               	bcf	int$flags,1,c	;clear compiler interrupt flag (level 2)
  2777  001668  0011               	retfie		f
  2778  00166A                     __end_of_IRS_High:
  2779                           	opt callstack 0
  2780                           
  2781                           	psect	rparam
  2782  0000                     
  2783                           	psect	temp
  2784  00004C                     btemp:
  2785                           	opt callstack 0
  2786  00004C                     	ds	1
  2787  0000                     int$flags	set	btemp
  2788  0000                     wtemp8	set	btemp+1
  2789  0000                     ttemp5	set	btemp+1
  2790  0000                     ttemp6	set	btemp+4
  2791  0000                     ttemp7	set	btemp+8
  2792                           tosu	equ	0xFFF
  2793                           tosh	equ	0xFFE
  2794                           tosl	equ	0xFFD
  2795                           stkptr	equ	0xFFC
  2796                           pclatu	equ	0xFFB
  2797                           pclath	equ	0xFFA
  2798                           pcl	equ	0xFF9
  2799                           tblptru	equ	0xFF8
  2800                           tblptrh	equ	0xFF7
  2801                           tblptrl	equ	0xFF6
  2802                           tablat	equ	0xFF5
  2803                           prodh	equ	0xFF4
  2804                           prodl	equ	0xFF3
  2805                           indf0	equ	0xFEF
  2806                           postinc0	equ	0xFEE
  2807                           postdec0	equ	0xFED
  2808                           preinc0	equ	0xFEC
  2809                           plusw0	equ	0xFEB
  2810                           fsr0h	equ	0xFEA
  2811                           fsr0l	equ	0xFE9
  2812                           wreg	equ	0xFE8
  2813                           indf1	equ	0xFE7
  2814                           postinc1	equ	0xFE6
  2815                           postdec1	equ	0xFE5
  2816                           preinc1	equ	0xFE4
  2817                           plusw1	equ	0xFE3
  2818                           fsr1h	equ	0xFE2
  2819                           fsr1l	equ	0xFE1
  2820                           bsr	equ	0xFE0
  2821                           indf2	equ	0xFDF
  2822                           postinc2	equ	0xFDE
  2823                           postdec2	equ	0xFDD
  2824                           preinc2	equ	0xFDC
  2825                           plusw2	equ	0xFDB
  2826                           fsr2h	equ	0xFDA
  2827                           fsr2l	equ	0xFD9
  2828                           status	equ	0xFD8


Data Sizes:
    Strings     0
    Constant    1
    Data        2
    BSS         169
    Persistent  0
    Stack       0

Auto Spaces:
    Space          Size  Autos    Used
    COMRAM           94     26      75
    BANK0           160      0     122
    BANK1           256      0       0
    BANK2           256      0       0
    BANK3           256      0       0
    BANK4           256      0       0
    BANK5           256      0       0
    BANK6           256      0       0
    BANK7           256      0       0
    BANK8           256      0       0
    BANK9           256      0       0
    BANK10          256      0       0
    BANK11          256      0       0
    BANK12          256      0       0
    BANK13          256      0       0
    BANK14          256      0       0
    BANK15           56      0       0

Pointer List with Targets:

    EUSARTEnviar2@reg	PTR unsigned char  size(2) Largest target is 1
		 -> TXREG2(SFR_1[1]), 

    EUSARTEnviar2@e	PTR struct eusart size(2) Largest target is 53
		 -> debug(BANK0[53]), 

    ReadShot@gameConfig	PTR struct gameConfig size(2) Largest target is 6
		 -> configJuego(COMRAM[6]), 

    ReadShot@reception	PTR struct reception size(2) Largest target is 69
		 -> receptores(BANK0[69]), 

    ReadShot@player	PTR struct player size(2) Largest target is 31
		 -> jugador(COMRAM[31]), 

    Capture@reception	PTR struct reception size(2) Largest target is 69
		 -> receptores(BANK0[69]), 


Critical Paths under _main in COMRAM

    _main->_ReadShot

Critical Paths under _IRS_Low in COMRAM

    _IRS_Low->_Capture

Critical Paths under _IRS_High in COMRAM

    None.

Critical Paths under _main in BANK0

    None.

Critical Paths under _IRS_Low in BANK0

    None.

Critical Paths under _IRS_High in BANK0

    None.

Critical Paths under _main in BANK1

    None.

Critical Paths under _IRS_Low in BANK1

    None.

Critical Paths under _IRS_High in BANK1

    None.

Critical Paths under _main in BANK2

    None.

Critical Paths under _IRS_Low in BANK2

    None.

Critical Paths under _IRS_High in BANK2

    None.

Critical Paths under _main in BANK3

    None.

Critical Paths under _IRS_Low in BANK3

    None.

Critical Paths under _IRS_High in BANK3

    None.

Critical Paths under _main in BANK4

    None.

Critical Paths under _IRS_Low in BANK4

    None.

Critical Paths under _IRS_High in BANK4

    None.

Critical Paths under _main in BANK5

    None.

Critical Paths under _IRS_Low in BANK5

    None.

Critical Paths under _IRS_High in BANK5

    None.

Critical Paths under _main in BANK6

    None.

Critical Paths under _IRS_Low in BANK6

    None.

Critical Paths under _IRS_High in BANK6

    None.

Critical Paths under _main in BANK7

    None.

Critical Paths under _IRS_Low in BANK7

    None.

Critical Paths under _IRS_High in BANK7

    None.

Critical Paths under _main in BANK8

    None.

Critical Paths under _IRS_Low in BANK8

    None.

Critical Paths under _IRS_High in BANK8

    None.

Critical Paths under _main in BANK9

    None.

Critical Paths under _IRS_Low in BANK9

    None.

Critical Paths under _IRS_High in BANK9

    None.

Critical Paths under _main in BANK10

    None.

Critical Paths under _IRS_Low in BANK10

    None.

Critical Paths under _IRS_High in BANK10

    None.

Critical Paths under _main in BANK11

    None.

Critical Paths under _IRS_Low in BANK11

    None.

Critical Paths under _IRS_High in BANK11

    None.

Critical Paths under _main in BANK12

    None.

Critical Paths under _IRS_Low in BANK12

    None.

Critical Paths under _IRS_High in BANK12

    None.

Critical Paths under _main in BANK13

    None.

Critical Paths under _IRS_Low in BANK13

    None.

Critical Paths under _IRS_High in BANK13

    None.

Critical Paths under _main in BANK14

    None.

Critical Paths under _IRS_Low in BANK14

    None.

Critical Paths under _IRS_High in BANK14

    None.

Critical Paths under _main in BANK15

    None.

Critical Paths under _IRS_Low in BANK15

    None.

Critical Paths under _IRS_High in BANK15

    None.

Call Graph Tables:

 ---------------------------------------------------------------------------------
 (Depth) Function   	        Calls       Base Space   Used Autos Params    Refs
 ---------------------------------------------------------------------------------
 (0) _main                                                 0     0      0    2147
                             _Config
                      _EUSARTEnviar2
                          _InitDebug
                           _ReadShot
 ---------------------------------------------------------------------------------
 (1) _ReadShot                                            11     5      6    1153
                                             15 COMRAM    11     5      6
 ---------------------------------------------------------------------------------
 (1) _InitDebug                                            2     2      0     246
                                             15 COMRAM     2     2      0
 ---------------------------------------------------------------------------------
 (1) _EUSARTEnviar2                                        4     0      4     748
                                             15 COMRAM     4     0      4
 ---------------------------------------------------------------------------------
 (1) _Config                                               0     0      0       0
 ---------------------------------------------------------------------------------
 Estimated maximum stack depth 1
 ---------------------------------------------------------------------------------
 (Depth) Function   	        Calls       Base Space   Used Autos Params    Refs
 ---------------------------------------------------------------------------------
 (2) _IRS_Low                                              7     7      0    1133
                                              8 COMRAM     7     7      0
                            _Capture
                    i1_EUSARTEnviar2
 ---------------------------------------------------------------------------------
 (3) i1_EUSARTEnviar2                                      4     0      4     140
                                              2 COMRAM     4     0      4
 ---------------------------------------------------------------------------------
 (3) _Capture                                              6     4      2     993
                                              2 COMRAM     6     4      2
 ---------------------------------------------------------------------------------
 Estimated maximum stack depth 3
 ---------------------------------------------------------------------------------
 (Depth) Function   	        Calls       Base Space   Used Autos Params    Refs
 ---------------------------------------------------------------------------------
 (4) _IRS_High                                             2     2      0       0
                                              0 COMRAM     2     2      0
 ---------------------------------------------------------------------------------
 Estimated maximum stack depth 4
 ---------------------------------------------------------------------------------

 Call Graph Graphs:

 _main (ROOT)
   _Config
   _EUSARTEnviar2
   _InitDebug
   _ReadShot

 _IRS_Low (ROOT)
   _Capture
   i1_EUSARTEnviar2

 _IRS_High (ROOT)

 Address spaces:
Name               Size   Autos  Total    Cost      Usage
BIGRAM             F37      0       0      37        0.0%
EEDATA             400      0       0       0        0.0%
BITBANK14          100      0       0      33        0.0%
BANK14             100      0       0      34        0.0%
BITBANK13          100      0       0      31        0.0%
BANK13             100      0       0      32        0.0%
BITBANK12          100      0       0      29        0.0%
BANK12             100      0       0      30        0.0%
BITBANK11          100      0       0      27        0.0%
BANK11             100      0       0      28        0.0%
BITBANK10          100      0       0      25        0.0%
BANK10             100      0       0      26        0.0%
BITBANK9           100      0       0      23        0.0%
BANK9              100      0       0      24        0.0%
BITBANK8           100      0       0      21        0.0%
BANK8              100      0       0      22        0.0%
BITBANK7           100      0       0      19        0.0%
BANK7              100      0       0      20        0.0%
BITBANK6           100      0       0      17        0.0%
BANK6              100      0       0      18        0.0%
BITBANK5           100      0       0      15        0.0%
BANK5              100      0       0      16        0.0%
BITBANK4           100      0       0      13        0.0%
BANK4              100      0       0      14        0.0%
BITBANK3           100      0       0      10        0.0%
BANK3              100      0       0      11        0.0%
BITBANK2           100      0       0       8        0.0%
BANK2              100      0       0       9        0.0%
BITBANK1           100      0       0       6        0.0%
BANK1              100      0       0       7        0.0%
BITBANK0            A0      0       0       4        0.0%
BANK0               A0      0      7A       5       76.3%
BITCOMRAM           5E      0       0       0        0.0%
COMRAM              5E     1A      4B       1       79.8%
BITBANK15           38      0       0      35        0.0%
BANK15              38      0       0      36        0.0%
BITSFR_1             0      0       0     200        0.0%
SFR_1                0      0       0     200        0.0%
BITSFR               0      0       0     200        0.0%
SFR                  0      0       0     200        0.0%
STACK                0      0       0       2        0.0%
NULL                 0      0       0       0        0.0%
ABS                  0      0      C5      12        0.0%
DATA                 0      0      C5       3        0.0%
CODE                 0      0       0       0        0.0%


Microchip Technology PIC18 Macro Assembler V2.10 build 88905656 
Symbol Table                                                                                   Sat Oct 17 12:33:20 2020

                      l97 19E0                        bsr 000FE0              __CFG_CP0$OFF 000000  
            __CFG_CP1$OFF 000000              __CFG_CP2$OFF 000000              __CFG_CP3$OFF 000000  
             __CFG_LVP$ON 000000                       l250 14A4                       l244 18FC  
                     l317 1A5A                       l254 1366                       l255 138C  
                     l288 17C8                       _LA2 007C4A                       _LA3 007C4B  
            __CFG_CPB$OFF 000000                       _PR4 000F52              __CFG_CPD$OFF 000000  
                     u720 1828                       u721 1824                       u730 18EA  
                     u731 18E6                       u740 1682                       u741 167E  
                     u750 16AC                       u751 16A8                       u760 16C8  
                     u761 16C4                       u770 16F2                       u771 16EE  
                     u780 171C                       u781 1718                       u790 1768  
                     u791 1764            ReadShot@player 0041                       prod 000FF3  
                     wreg 000FE8                _TXSTA2bits 000F72                InitDebug@i 003F  
                    l1601 19C4                      l1611 19D6                      l1603 19CE  
                    l1531 191E                      l1613 19D8                      l1605 19D0  
                    l1541 1934                      l1533 192C                      l1701 171C  
                    l1615 19DA                      l1607 19D2                      l1551 195E  
                    l1543 1936                      l1535 192E                      l1527 18FE  
                    l1703 1768                      l1617 19DC                      l1609 19D4  
                    l1561 1974                      l1553 1960                      l1545 1948  
                    l1537 1930                      l1529 1914                      l1705 1780  
                    l1619 19DE                      l1571 198E                      l1563 1976  
                    l1555 1962                      l1547 194A                      l1539 1932  
                    l1707 17A8                      l1581 19A8                      l1573 19A0  
                    l1565 1988                      l1557 1970                      l1549 195C  
                    l1661 1A44                      l1901 1334                      l1591 19BA  
                    l1583 19AA                      l1575 19A2                      l1567 198A  
                    l1559 1972                      l1663 1A58                      l1671 1806  
                    l1911 1384                      l1903 1344                      l1593 19BC  
                    l1585 19AC                      l1577 19A4                      l1569 198C  
                    l1673 1816                      l1665 17CA                      l1921 13C8  
                    l1913 139E                      l1905 135A                      l1595 19BE  
                    l1587 19AE                      l1579 19A6                      l1659 1A24  
                    l1683 1860                      l1675 1818                      l1691 166A  
                    l1931 1416                      l1923 13CC                      l1915 13BA  
                    l1907 135C                      l1597 19C0                      l1589 19B0  
                    l1685 18D8                      l1677 1828                      l1693 1682  
                    l1941 142C                      l1933 141C                      l1925 13D0  
                    l1917 13C0                      l1909 1374                      l1599 19C2  
                    l1687 18DA                      l1695 16AC                      l1951 147C  
                    l1935 1420                      l1943 1444                      l1919 13C4  
                    l1927 13E8                      l1689 18EA                      l1697 16C8  
                    l1953 1480                      l1945 1456                      l1937 1424  
                    l1929 13FA                      l1881 12CE                      l1699 16F2  
                    l1955 1484                      l1947 1472                      l1939 1428  
                    l1891 12FE                      l1883 12D2                      l1957 1488  
                    l1949 1478                      l1893 1302                      l1885 12D6  
                    l1895 1306                      l1887 12E8                      l1879 12CA  
                    l1889 12FA                      l1897 1316                      l1899 1326  
                    u1110 12E8                      u1111 12E4                      u1200 1456  
                    u1120 12FA                      u1201 1452                      u1121 12F6  
                    u1130 1326                      u1131 1322                      u1140 1334  
                    u1141 1330                      u1150 1344                      u1151 1340  
                    u1160 1374                      u1161 1370                      u1170 1384  
                    u1171 1380                      u1180 139E                      u1181 139A  
                    _LATA 000F89                      u1190 13FA                      _LATB 000F8A  
                    u1191 13F6             __CFG_DEBUG$ON 000000                      _TMR4 000F53  
                    _WPUB 000F61           __end_of_IRS_Low 01EC                      _main 12CA  
                    fsr1h 000FE2                      fsr2h 000FDA                      indf1 000FE7  
                    indf2 000FDF                      fsr1l 000FE1                      fsr2l 000FD9  
                    btemp 004C             __CFG_BORV$190 000000                      prodl 000FF3  
                    start 01EC             __CFG_IESO$OFF 000000           __end_of_Capture 12CA  
            ___param_bank 000000              _BAUDCON2bits 000F70             _EUSARTEnviar2 1A24  
                   ?_main 0030                     i1l317 1A92                     i1l237 01CC  
                   i2l200 14D2                     i1l274 12BA                     i2l212 15E6  
                   i2l204 1542                     i1l276 12C8                     i2l221 165E  
                   i1l269 118E                     i2l214 15DE                     i2l209 1586  
                   _TMR0H 000FD7                     _TMR1H 000FCF                     _TMR0L 000FD6  
                   _TMR1L 000FCE                     _TMR3H 000FB3                     _TMR3L 000FB2  
                   _TMR5H 000F50                     _TMR5L 000F4F                     _TRISA 000F92  
                   _TRISB 000F93                     _TRISD 000F95                     _TRISE 000F96  
        __end_of_IRS_High 166A             __CFG_WRT0$OFF 000000             __CFG_WRT1$OFF 000000  
           __CFG_WRT2$OFF 000000             __CFG_WRT3$OFF 000000            __CFG_EBTR0$OFF 000000  
          __CFG_FCMEN$OFF 000000            __CFG_EBTR1$OFF 000000            __CFG_EBTR2$OFF 000000  
          __CFG_EBTR3$OFF 000000             __CFG_WRTB$OFF 000000             __CFG_WRTC$OFF 000000  
           __CFG_WRTD$OFF 000000            __CFG_EBTRB$OFF 000000                     _debug 00A5  
      __CFG_MCLRE$EXTMCLR 000000                     tablat 000FF5          Capture@reception 0032  
                   ttemp5 004D                     ttemp6 0050                     ttemp7 0054  
                   status 000FD8                     wtemp8 004D            __CFG_HFOFST$ON 000000  
          __CFG_FOSC$HSMP 000000           InitDebug@i_2138 0040           __initialization 19E2  
            __end_of_main 14AC          __end_of_ReadShot 17CA            ?_EUSARTEnviar2 003F  
                  ??_main 004A             __activetblptr 000001            __CFG_PLLCFG$ON 000000  
               ??_IRS_Low 0038          i1EUSARTEnviar2@e 0034                    _CCPR1H 000FBF  
                  _CCPR1L 000FBE                    _CCPR3H 000F5F                    _CCPR3L 000F5E  
                  _CCPR5H 000F56                    _CCPR5L 000F55                    _ANSELA 000F38  
                  _ANSELB 000F39                    _ANSELC 000F3A                    _ANSELD 000F3B  
       ReadShot@reception 0043                    i1l1621 1004                    i1l1631 108E  
                  i1l1623 1020                    i1l1711 1A7C                    i1l1641 111C  
                  i1l1633 10AC                    i1l1625 103E                    i1l1713 1A90  
                  i1l1801 0052                    i1l1651 11D8                    i1l1643 113A  
                  i1l1635 10CE                    i1l1627 105C                    i1l1803 005A  
                  i1l1811 0070                    i1l1653 11F8                    i1l1645 115C  
                  i1l1637 10DC                    i1l1629 1070                    i1l1709 1A5C  
                  i1l1821 009C                    i1l1813 007E                    i1l1805 005E  
                  i1l1655 123A                    i1l1647 116E                    i1l1639 10FE  
                  i1l1831 00D0                    i1l1823 00A8                    i1l1815 008C  
                  i1l1807 0062                    i1l1657 127A                    i1l1649 11AC  
                  i1l1841 00F4                    i1l1833 00D4                    i1l1817 0094  
                  i1l1825 00AA                    i1l1809 006E                    i1l1851 012E  
                  i1l1843 0102                    i1l1835 00D8                    i1l1827 00B8  
                  i1l1819 0098                    i1l1861 0166                    i1l1853 0140  
                  i1l1845 010A                    i1l1837 00E4                    i1l1829 00C6  
                  i1l1871 01AC                    i1l1863 017A                    i1l1847 011C  
                  i1l1855 0148                    i1l1839 00E6                    i1l1873 01BC  
                  i1l1857 014A                    i1l1849 012C                    i1l1865 017C  
                  i1l1875 01C2                    i1l1867 018A                    i1l1859 015C  
                  i1l1877 01CA                    i1l1869 0198                    i1l1797 0036  
                  i1l1799 0044                    i2l1721 14E0                    i2l1731 1512  
                  i2l1723 14EE                    i2l1715 14B4                    i2l1741 154E  
                  i2l1733 1522                    i2l1725 14F4                    i2l1717 14C2  
          __CFG_WDTEN$OFF 000000                    i2l1735 1532                    i2l1743 1554  
                  i2l1727 14F6                    i2l1719 14D0                    i2l1761 15AE  
                  i2l1745 1566                    i2l1737 1534                    i2l1729 1504  
                  i2l1771 15F8                    i2l1763 15CE                    i2l1747 1576  
                  i2l1755 158A                    i2l1739 1544                    i2l1773 1608  
                  i2l1765 15D8                    i2l1757 159C                    i2l1781 1624  
                  i2l1749 1578                    i2l1791 1658                    i2l1783 1634  
                  i2l1775 160C                    i2l1767 15E8                    i2l1759 15AC  
                  i2l1793 165A                    i2l1785 1636                    i2l1777 160E  
                  i2l1769 15F2                    i2l1787 1644                    i2l1795 165C  
                  i2l1789 1654        __size_of_InitDebug 0134                 ??_Capture 0034  
                  _SPBRG2 000F75                    _TXREG2 000F73                    _Config 18FE  
          __CFG_XINST$OFF 000000              _CCPTMRS0bits 000F49            __CFG_STVREN$ON 000000  
                  clear_0 1A00                    clear_1 1A0C              __pdataCOMRAM 004A  
            __mediumconst 0000           i1_EUSARTEnviar2 1A5C                    tblptrh 000FF7  
                  tblptrl 000FF6                    tblptru 000FF8        ReadShot@gameConfig 003F  
              __accesstop 0060   __end_of__initialization 1A12           __CFG_PBADEN$OFF 000000  
           ___rparam_used 000001                 ?_IRS_High 0030            __pcstackCOMRAM 0030  
         ??_EUSARTEnviar2 0043         __end_of_InitDebug 18FE                __pbssBANK0 0060  
               ?_ReadShot 003F                   ?_Config 0030        __CFG_CCP2MX$PORTC1 000000  
              ??_IRS_High 0030        __CFG_CCP3MX$PORTE0 000000   __end_ofi1_EUSARTEnviar2 1A94  
              _contByteEL 0008                   i1u70_20 11D8                   i1u62_20 1020  
                 i1u70_21 11D4                   i1u62_21 101C                   i1u71_20 127A  
                 i1u63_20 103E                   i1u71_21 1276                   i1u63_21 103A  
                 i1u64_20 105C                   i1u64_21 1058                   i1u65_20 108E  
                 i1u65_21 108A                   i1u66_20 10AC                   i1u66_21 10A8  
                 i1u67_20 111C                   i1u67_21 1118                   i1u68_20 113A  
                 i1u68_21 1136                   i1u69_20 11AC                   i1u69_21 11A8  
                 _IRS_Low 0018                   i1u96_20 0044                   i1u96_21 0040  
                 i2u80_40 14C2                   i2u80_41 14BE                   i1u97_20 0052  
                 i1u97_21 004E                   i2u81_40 14D0                   i2u81_41 14CC  
                 i1u98_20 007E                   i1u98_21 007A                   i2u90_40 159C  
                 i2u82_40 14E0                   i2u90_41 1598                   i2u82_41 14DC  
                 i1u99_20 008C                   i1u99_21 0088                   i2u91_40 15AC  
                 i2u83_40 14EE                   i2u91_41 15A8                   i2u83_41 14EA  
                 _SPBRGH2 000F76                   i2u92_40 15CE                   i2u84_40 1504  
                 i2u92_41 15CA                   i2u84_41 1500                   i2u93_40 1608  
                 i2u85_40 1512                   i2u93_41 1604                   i2u85_41 150E  
                 i2u94_40 1620                   i2u86_40 1522                   i2u94_41 161C  
                 i2u86_41 151E                   i2u95_40 1634                   i2u87_40 1532  
                 i2u95_41 1630                   i2u87_41 152E                   i2u88_40 1566  
                 i2u88_41 1562                   i2u89_40 1576                   i2u89_41 1572  
                 _SSP1BUF 000FC9                   _DatosEL 0001                   _Capture 1004  
              ??_ReadShot 0045           __CFG_PWRTEN$OFF 000000           __size_of_Config 00E4  
                 __Hparam 0000                   __Lparam 0000              __psmallconst 1000  
                 __pcinit 19E2                   __ramtop 1000                   __ptext0 12CA  
                 __ptext1 166A                   __ptext2 17CA                   __ptext3 1A24  
                 __ptext4 18FE                   __ptext6 1A5C                   __ptext7 1004  
               _T0CONbits 000FD5                 _T1CONbits 000FCD                 _T3CONbits 000FB1  
                 _jugador 000B                 _T4CONbits 000F51                 _T5CONbits 000F4E  
              _receptores 0060            __pintcode_body 14AC      end_of_initialization 1A12  
                 int_func 14AC         __end_of_preambulo 1002                   postdec2 000FDD  
                 postinc0 000FEE                   postinc1 000FE6                   postinc2 000FDE  
        ?i1_EUSARTEnviar2 0032                 _PORTBbits 000F81          EUSARTEnviar2@reg 003F  
               _TRISCbits 000F94                 _TRISEbits 000F96               _CCP1CONbits 000FBD  
             _CCP2CONbits 000F66               _CCP3CONbits 000F5D            __end_of_Config 19E2  
       __size_of_IRS_High 1662             __pidataCOMRAM 1A94       start_initialization 19E2  
               _InitDebug 17CA                  ??_Config 003F         __size_of_ReadShot 0160  
   __end_of_EUSARTEnviar2 1A5C               _cantBytesEL 0007               __pbssCOMRAM 0001  
              ?_InitDebug 0030                  ?_IRS_Low 0030                  ?_Capture 0032  
               _debugCont 000A                 __pintcode 0008        i1EUSARTEnviar2@reg 0032  
               _contBitEL 004A               __pintcodelo 0018          __CFG_PRICLKEN$ON 000000  
             __smallconst 1000                  _IPR1bits 000F9F                  _IPR2bits 000FA2  
                _PIE1bits 000F9D                  _IPR3bits 000FA5                  _PIE2bits 000FA0  
                _IPR4bits 000F7C                  _IPR5bits 000F7F                  _PIE3bits 000FA3  
                _PIE4bits 000F7A                  _PIE5bits 000F7D               _configJuego 002A  
                i1u100_20 00B8                  i1u100_21 00B4                  i1u101_20 00C6  
                i1u101_21 00C2                  i1u110_20 01AC                  i1u102_20 00F4  
                i1u110_21 01A8                  i1u102_21 00F0                  i1u103_20 0102  
                i1u103_21 00FE                  i1u104_20 011C                  i1u104_21 0118  
                i1u105_20 012C                  i1u105_21 0128                  i1u106_20 0140  
                i1u106_21 013C                  i1u107_20 015C                  i1u107_21 0158  
                i1u108_20 018A                  i1u108_21 0186                  i1u109_20 0198  
                i1u109_21 0194                  _PIR1bits 000F9E                  _PIR2bits 000FA1  
                _PIR3bits 000FA4                  _PIR4bits 000F7B                  _PIR5bits 000F7E  
               _preambulo 1001                  _IRS_High 0008                  _RCONbits 000FD0  
        __CFG_WDTPS$32768 000000               ??_InitDebug 003F          __size_of_IRS_Low 01D4  
             _INTCON2bits 000FF1               _INTCON3bits 000FF0                  _ReadShot 166A  
        __size_of_Capture 02C6                  __Hrparam 0000                  __Lrparam 0000  
          _primerosBitsEL 0009              __Lsmallconst 1000        __CFG_BOREN$SBORDIS 000000  
       __CFG_P2BMX$PORTD2 000000  __size_ofi1_EUSARTEnviar2 0038                  _flancoEL 004B  
            _SSP1CON1bits 000FC6             __size_of_main 01E2            EUSARTEnviar2@e 0041  
                int$flags 004C              _SSP1STATbits 000FC7                _INTCONbits 000FF2  
                intlevel1 0000                  intlevel2 0000                _RCSTA2bits 000F71  
       __CFG_T3CMX$PORTC0 000000    __size_of_EUSARTEnviar2 0038         ??i1_EUSARTEnviar2 0036  
